

Microchip MPLAB XC8 Assembler V2.05 build -831301201 
                                                                                               Sat Apr 13 14:32:13 2019

Microchip MPLAB XC8 C Compiler v2.05 (Free license) build 20181220022703 Og1 
     1                           	processor	16F1778
     2                           	opt	pw 120
     3                           	opt	flic
     4                           	psect	idataBANK0,global,class=CODE,delta=2
     5                           	psect	stringtext1,global,class=STRCODE,delta=2
     6                           	psect	cinit,global,class=CODE,merge=1,delta=2
     7                           	psect	bssCOMMON,global,class=COMMON,space=1,delta=1
     8                           	psect	bssBANK0,global,class=BANK0,space=1,delta=1
     9                           	psect	dataBANK0,global,class=BANK0,space=1,delta=1
    10                           	psect	cstackCOMMON,global,class=COMMON,space=1,delta=1
    11                           	psect	cstackBANK0,global,class=BANK0,space=1,delta=1
    12                           	psect	maintext,global,class=CODE,merge=1,split=1,delta=2
    13                           	psect	text1,local,class=CODE,merge=1,delta=2
    14                           	psect	text2,local,class=CODE,merge=1,delta=2
    15                           	psect	text3,local,class=CODE,merge=1,delta=2
    16                           	psect	intentry,global,class=CODE,delta=2
    17                           	dabs	1,0x7E,2
    18  0000                     
    19                           ; Version 2.05
    20                           ; Generated 20/12/2018 GMT
    21                           ; 
    22                           ; Copyright © 2018, Microchip Technology Inc. and its subsidiaries ("Microchip")
    23                           ; All rights reserved.
    24                           ; 
    25                           ; This software is developed by Microchip Technology Inc. and its subsidiaries ("Microch
      +                          ip").
    26                           ; 
    27                           ; Redistribution and use in source and binary forms, with or without modification, are
    28                           ; permitted provided that the following conditions are met:
    29                           ; 
    30                           ;     1. Redistributions of source code must retain the above copyright notice, this lis
      +                          t of
    31                           ;        conditions and the following disclaimer.
    32                           ; 
    33                           ;     2. Redistributions in binary form must reproduce the above copyright notice, this 
      +                          list
    34                           ;        of conditions and the following disclaimer in the documentation and/or other
    35                           ;        materials provided with the distribution.
    36                           ; 
    37                           ;     3. Microchip's name may not be used to endorse or promote products derived from th
      +                          is
    38                           ;        software without specific prior written permission.
    39                           ; 
    40                           ; THIS SOFTWARE IS PROVIDED BY MICROCHIP "AS IS" AND ANY EXPRESS OR IMPLIED WARRANTIES,
    41                           ; INCLUDING, BUT NOT LIMITED TO, THE IMPLIED WARRANTIES OF MERCHANTABILITY AND FITNESS F
      +                          OR
    42                           ; PURPOSE ARE DISCLAIMED.  IN NO EVENT SHALL MICROCHIP BE LIABLE FOR ANY DIRECT, INDIREC
      +                          T,
    43                           ; INCIDENTAL, SPECIAL, EXEMPLARY, OR CONSEQUENTIAL DAMAGES (INCLUDING BUT NOT LIMITED TO
    44                           ; PROCUREMENT OF SUBSTITUTE GOODS OR SERVICES; LOSS OF USE, DATA OR PROFITS; OR BUSINESS
    45                           ; INTERRUPTION) HOWSOEVER CAUSED AND ON ANY THEORY OF LIABILITY, WHETHER IN CONTRACT, ST
      +                          RICT
    46                           ; LIABILITY, OR TORT (INCLUDING NEGLIGENCE OR OTHERWISE) ARISING IN ANY WAY OUT OF THE U
      +                          SE OF
    47                           ; THIS SOFTWARE, EVEN IF ADVISED OF THE POSSIBILITY OF SUCH DAMAGE.
    48                           ; 
    49                           ; 
    50                           ; Code-generator required, PIC16F1778 Definitions
    51                           ; 
    52                           ; SFR Addresses
    53  0000                     	;# 
    54  0001                     	;# 
    55  0002                     	;# 
    56  0003                     	;# 
    57  0004                     	;# 
    58  0005                     	;# 
    59  0006                     	;# 
    60  0007                     	;# 
    61  0008                     	;# 
    62  0009                     	;# 
    63  000A                     	;# 
    64  000B                     	;# 
    65  000C                     	;# 
    66  000D                     	;# 
    67  000E                     	;# 
    68  0010                     	;# 
    69  0011                     	;# 
    70  0012                     	;# 
    71  0013                     	;# 
    72  0014                     	;# 
    73  0015                     	;# 
    74  0016                     	;# 
    75  0017                     	;# 
    76  0018                     	;# 
    77  0018                     	;# 
    78  0019                     	;# 
    79  001A                     	;# 
    80  001B                     	;# 
    81  001C                     	;# 
    82  001C                     	;# 
    83  001D                     	;# 
    84  001E                     	;# 
    85  001F                     	;# 
    86  008C                     	;# 
    87  008D                     	;# 
    88  008E                     	;# 
    89  0090                     	;# 
    90  0091                     	;# 
    91  0092                     	;# 
    92  0093                     	;# 
    93  0094                     	;# 
    94  0095                     	;# 
    95  0096                     	;# 
    96  0097                     	;# 
    97  0098                     	;# 
    98  0099                     	;# 
    99  009A                     	;# 
   100  009B                     	;# 
   101  009C                     	;# 
   102  009D                     	;# 
   103  009E                     	;# 
   104  009F                     	;# 
   105  010C                     	;# 
   106  010D                     	;# 
   107  010E                     	;# 
   108  0111                     	;# 
   109  0112                     	;# 
   110  0113                     	;# 
   111  0114                     	;# 
   112  0115                     	;# 
   113  0116                     	;# 
   114  0117                     	;# 
   115  0118                     	;# 
   116  0119                     	;# 
   117  011A                     	;# 
   118  011B                     	;# 
   119  011C                     	;# 
   120  011D                     	;# 
   121  018C                     	;# 
   122  018D                     	;# 
   123  018E                     	;# 
   124  0191                     	;# 
   125  0191                     	;# 
   126  0192                     	;# 
   127  0193                     	;# 
   128  0193                     	;# 
   129  0194                     	;# 
   130  0195                     	;# 
   131  0196                     	;# 
   132  0197                     	;# 
   133  0199                     	;# 
   134  0199                     	;# 
   135  0199                     	;# 
   136  019A                     	;# 
   137  019A                     	;# 
   138  019A                     	;# 
   139  019B                     	;# 
   140  019B                     	;# 
   141  019B                     	;# 
   142  019B                     	;# 
   143  019B                     	;# 
   144  019C                     	;# 
   145  019C                     	;# 
   146  019C                     	;# 
   147  019D                     	;# 
   148  019D                     	;# 
   149  019D                     	;# 
   150  019E                     	;# 
   151  019E                     	;# 
   152  019E                     	;# 
   153  019F                     	;# 
   154  019F                     	;# 
   155  019F                     	;# 
   156  019F                     	;# 
   157  019F                     	;# 
   158  020C                     	;# 
   159  020D                     	;# 
   160  020E                     	;# 
   161  0210                     	;# 
   162  0211                     	;# 
   163  0211                     	;# 
   164  0212                     	;# 
   165  0212                     	;# 
   166  0213                     	;# 
   167  0213                     	;# 
   168  0214                     	;# 
   169  0214                     	;# 
   170  0215                     	;# 
   171  0215                     	;# 
   172  0215                     	;# 
   173  0215                     	;# 
   174  0216                     	;# 
   175  0216                     	;# 
   176  0217                     	;# 
   177  0217                     	;# 
   178  021B                     	;# 
   179  021C                     	;# 
   180  021D                     	;# 
   181  021E                     	;# 
   182  021F                     	;# 
   183  028C                     	;# 
   184  028D                     	;# 
   185  028E                     	;# 
   186  0291                     	;# 
   187  0291                     	;# 
   188  0292                     	;# 
   189  0293                     	;# 
   190  0294                     	;# 
   191  0295                     	;# 
   192  0295                     	;# 
   193  0296                     	;# 
   194  0297                     	;# 
   195  0298                     	;# 
   196  0299                     	;# 
   197  0299                     	;# 
   198  029A                     	;# 
   199  029B                     	;# 
   200  029C                     	;# 
   201  029E                     	;# 
   202  029F                     	;# 
   203  030C                     	;# 
   204  030D                     	;# 
   205  030E                     	;# 
   206  0315                     	;# 
   207  0316                     	;# 
   208  0317                     	;# 
   209  0318                     	;# 
   210  0319                     	;# 
   211  031B                     	;# 
   212  031C                     	;# 
   213  031D                     	;# 
   214  031E                     	;# 
   215  031F                     	;# 
   216  038C                     	;# 
   217  038D                     	;# 
   218  038E                     	;# 
   219  0390                     	;# 
   220  0391                     	;# 
   221  0392                     	;# 
   222  0393                     	;# 
   223  0394                     	;# 
   224  0395                     	;# 
   225  0396                     	;# 
   226  0397                     	;# 
   227  0398                     	;# 
   228  0399                     	;# 
   229  039D                     	;# 
   230  039E                     	;# 
   231  039F                     	;# 
   232  040D                     	;# 
   233  040F                     	;# 
   234  040F                     	;# 
   235  0410                     	;# 
   236  0411                     	;# 
   237  0412                     	;# 
   238  0413                     	;# 
   239  0413                     	;# 
   240  0414                     	;# 
   241  0414                     	;# 
   242  0415                     	;# 
   243  0416                     	;# 
   244  0417                     	;# 
   245  0418                     	;# 
   246  041A                     	;# 
   247  041A                     	;# 
   248  041B                     	;# 
   249  041B                     	;# 
   250  041C                     	;# 
   251  041D                     	;# 
   252  041E                     	;# 
   253  041F                     	;# 
   254  048E                     	;# 
   255  048E                     	;# 
   256  048F                     	;# 
   257  0490                     	;# 
   258  0491                     	;# 
   259  0492                     	;# 
   260  0493                     	;# 
   261  0493                     	;# 
   262  0494                     	;# 
   263  0494                     	;# 
   264  0495                     	;# 
   265  0496                     	;# 
   266  0497                     	;# 
   267  0498                     	;# 
   268  049A                     	;# 
   269  049A                     	;# 
   270  049B                     	;# 
   271  049B                     	;# 
   272  049C                     	;# 
   273  049D                     	;# 
   274  049E                     	;# 
   275  049F                     	;# 
   276  050F                     	;# 
   277  0510                     	;# 
   278  0511                     	;# 
   279  0512                     	;# 
   280  0513                     	;# 
   281  0514                     	;# 
   282  0515                     	;# 
   283  0516                     	;# 
   284  0517                     	;# 
   285  0518                     	;# 
   286  0519                     	;# 
   287  051A                     	;# 
   288  058D                     	;# 
   289  058E                     	;# 
   290  058F                     	;# 
   291  058F                     	;# 
   292  058F                     	;# 
   293  0590                     	;# 
   294  0590                     	;# 
   295  0591                     	;# 
   296  0592                     	;# 
   297  0592                     	;# 
   298  0592                     	;# 
   299  0593                     	;# 
   300  0593                     	;# 
   301  0594                     	;# 
   302  0595                     	;# 
   303  0595                     	;# 
   304  0596                     	;# 
   305  0597                     	;# 
   306  0597                     	;# 
   307  0598                     	;# 
   308  0599                     	;# 
   309  0599                     	;# 
   310  0599                     	;# 
   311  059A                     	;# 
   312  059A                     	;# 
   313  059E                     	;# 
   314  059F                     	;# 
   315  059F                     	;# 
   316  0614                     	;# 
   317  0614                     	;# 
   318  0615                     	;# 
   319  0616                     	;# 
   320  0617                     	;# 
   321  0617                     	;# 
   322  0618                     	;# 
   323  0619                     	;# 
   324  061A                     	;# 
   325  061A                     	;# 
   326  061B                     	;# 
   327  061C                     	;# 
   328  068D                     	;# 
   329  068E                     	;# 
   330  068F                     	;# 
   331  0690                     	;# 
   332  0691                     	;# 
   333  0692                     	;# 
   334  0693                     	;# 
   335  0694                     	;# 
   336  0695                     	;# 
   337  0696                     	;# 
   338  0697                     	;# 
   339  0698                     	;# 
   340  0699                     	;# 
   341  069A                     	;# 
   342  069B                     	;# 
   343  069C                     	;# 
   344  069D                     	;# 
   345  069E                     	;# 
   346  069F                     	;# 
   347  070D                     	;# 
   348  070E                     	;# 
   349  070F                     	;# 
   350  0710                     	;# 
   351  0711                     	;# 
   352  0712                     	;# 
   353  0713                     	;# 
   354  0714                     	;# 
   355  0715                     	;# 
   356  0716                     	;# 
   357  0717                     	;# 
   358  0718                     	;# 
   359  0719                     	;# 
   360  071A                     	;# 
   361  071B                     	;# 
   362  071C                     	;# 
   363  071D                     	;# 
   364  071E                     	;# 
   365  071F                     	;# 
   366  078E                     	;# 
   367  078F                     	;# 
   368  0790                     	;# 
   369  0791                     	;# 
   370  0792                     	;# 
   371  0793                     	;# 
   372  0794                     	;# 
   373  0795                     	;# 
   374  0796                     	;# 
   375  0797                     	;# 
   376  0798                     	;# 
   377  0799                     	;# 
   378  079A                     	;# 
   379  079B                     	;# 
   380  079C                     	;# 
   381  079D                     	;# 
   382  079E                     	;# 
   383  079F                     	;# 
   384  080D                     	;# 
   385  080E                     	;# 
   386  080F                     	;# 
   387  0810                     	;# 
   388  0811                     	;# 
   389  0812                     	;# 
   390  0813                     	;# 
   391  0814                     	;# 
   392  0815                     	;# 
   393  0816                     	;# 
   394  0817                     	;# 
   395  0818                     	;# 
   396  0819                     	;# 
   397  081A                     	;# 
   398  081B                     	;# 
   399  081C                     	;# 
   400  081D                     	;# 
   401  081E                     	;# 
   402  081F                     	;# 
   403  090C                     	;# 
   404  090D                     	;# 
   405  090E                     	;# 
   406  090F                     	;# 
   407  0910                     	;# 
   408  0911                     	;# 
   409  0912                     	;# 
   410  0913                     	;# 
   411  0914                     	;# 
   412  0915                     	;# 
   413  0916                     	;# 
   414  0917                     	;# 
   415  0D8E                     	;# 
   416  0D8F                     	;# 
   417  0D90                     	;# 
   418  0D91                     	;# 
   419  0D91                     	;# 
   420  0D92                     	;# 
   421  0D93                     	;# 
   422  0D93                     	;# 
   423  0D94                     	;# 
   424  0D95                     	;# 
   425  0D95                     	;# 
   426  0D96                     	;# 
   427  0D97                     	;# 
   428  0D97                     	;# 
   429  0D98                     	;# 
   430  0D99                     	;# 
   431  0D99                     	;# 
   432  0D9A                     	;# 
   433  0D9B                     	;# 
   434  0D9C                     	;# 
   435  0D9C                     	;# 
   436  0D9D                     	;# 
   437  0D9D                     	;# 
   438  0D9E                     	;# 
   439  0D9F                     	;# 
   440  0DA0                     	;# 
   441  0DA1                     	;# 
   442  0DA1                     	;# 
   443  0DA2                     	;# 
   444  0DA3                     	;# 
   445  0DA3                     	;# 
   446  0DA4                     	;# 
   447  0DA5                     	;# 
   448  0DA5                     	;# 
   449  0DA6                     	;# 
   450  0DA7                     	;# 
   451  0DA7                     	;# 
   452  0DA8                     	;# 
   453  0DA9                     	;# 
   454  0DA9                     	;# 
   455  0DAA                     	;# 
   456  0DAB                     	;# 
   457  0DAC                     	;# 
   458  0DAC                     	;# 
   459  0DAD                     	;# 
   460  0DAD                     	;# 
   461  0DAE                     	;# 
   462  0DAF                     	;# 
   463  0DB0                     	;# 
   464  0DB1                     	;# 
   465  0DB1                     	;# 
   466  0DB2                     	;# 
   467  0DB3                     	;# 
   468  0DB3                     	;# 
   469  0DB4                     	;# 
   470  0DB5                     	;# 
   471  0DB5                     	;# 
   472  0DB6                     	;# 
   473  0DB7                     	;# 
   474  0DB7                     	;# 
   475  0DB8                     	;# 
   476  0DB9                     	;# 
   477  0DB9                     	;# 
   478  0DBA                     	;# 
   479  0DBB                     	;# 
   480  0DBC                     	;# 
   481  0DBC                     	;# 
   482  0DBD                     	;# 
   483  0DBD                     	;# 
   484  0DBE                     	;# 
   485  0DBF                     	;# 
   486  0DC0                     	;# 
   487  0E0C                     	;# 
   488  0E0D                     	;# 
   489  0E0E                     	;# 
   490  0E0F                     	;# 
   491  0E10                     	;# 
   492  0E11                     	;# 
   493  0E12                     	;# 
   494  0E13                     	;# 
   495  0E14                     	;# 
   496  0E15                     	;# 
   497  0E15                     	;# 
   498  0E15                     	;# 
   499  0E16                     	;# 
   500  0E16                     	;# 
   501  0E16                     	;# 
   502  0E17                     	;# 
   503  0E17                     	;# 
   504  0E17                     	;# 
   505  0E18                     	;# 
   506  0E18                     	;# 
   507  0E18                     	;# 
   508  0E19                     	;# 
   509  0E1A                     	;# 
   510  0E1B                     	;# 
   511  0E1D                     	;# 
   512  0E1E                     	;# 
   513  0E1F                     	;# 
   514  0E21                     	;# 
   515  0E22                     	;# 
   516  0E23                     	;# 
   517  0E24                     	;# 
   518  0E25                     	;# 
   519  0E26                     	;# 
   520  0E27                     	;# 
   521  0E28                     	;# 
   522  0E29                     	;# 
   523  0E2D                     	;# 
   524  0E2E                     	;# 
   525  0E2F                     	;# 
   526  0E30                     	;# 
   527  0E31                     	;# 
   528  0E32                     	;# 
   529  0E35                     	;# 
   530  0E36                     	;# 
   531  0E37                     	;# 
   532  0E38                     	;# 
   533  0E39                     	;# 
   534  0E3A                     	;# 
   535  0E3B                     	;# 
   536  0E3C                     	;# 
   537  0E3D                     	;# 
   538  0E3E                     	;# 
   539  0E90                     	;# 
   540  0E91                     	;# 
   541  0E92                     	;# 
   542  0E93                     	;# 
   543  0E94                     	;# 
   544  0E95                     	;# 
   545  0E96                     	;# 
   546  0E97                     	;# 
   547  0E98                     	;# 
   548  0E99                     	;# 
   549  0E9A                     	;# 
   550  0E9B                     	;# 
   551  0E9C                     	;# 
   552  0E9D                     	;# 
   553  0E9E                     	;# 
   554  0E9F                     	;# 
   555  0EA0                     	;# 
   556  0EA1                     	;# 
   557  0EA2                     	;# 
   558  0EA3                     	;# 
   559  0EA4                     	;# 
   560  0EA5                     	;# 
   561  0EA6                     	;# 
   562  0EA7                     	;# 
   563  0F0F                     	;# 
   564  0F10                     	;# 
   565  0F11                     	;# 
   566  0F12                     	;# 
   567  0F13                     	;# 
   568  0F14                     	;# 
   569  0F15                     	;# 
   570  0F16                     	;# 
   571  0F17                     	;# 
   572  0F18                     	;# 
   573  0F19                     	;# 
   574  0F1A                     	;# 
   575  0F1B                     	;# 
   576  0F1C                     	;# 
   577  0F1D                     	;# 
   578  0F1E                     	;# 
   579  0F1F                     	;# 
   580  0F20                     	;# 
   581  0F21                     	;# 
   582  0F22                     	;# 
   583  0F23                     	;# 
   584  0F24                     	;# 
   585  0F25                     	;# 
   586  0F26                     	;# 
   587  0F27                     	;# 
   588  0F28                     	;# 
   589  0F29                     	;# 
   590  0F2A                     	;# 
   591  0F2B                     	;# 
   592  0F2C                     	;# 
   593  0F2D                     	;# 
   594  0F2E                     	;# 
   595  0F2F                     	;# 
   596  0F30                     	;# 
   597  0F31                     	;# 
   598  0F32                     	;# 
   599  0F33                     	;# 
   600  0F34                     	;# 
   601  0F35                     	;# 
   602  0F36                     	;# 
   603  0F37                     	;# 
   604  0FE4                     	;# 
   605  0FE5                     	;# 
   606  0FE6                     	;# 
   607  0FE7                     	;# 
   608  0FE8                     	;# 
   609  0FE9                     	;# 
   610  0FEA                     	;# 
   611  0FEB                     	;# 
   612  0FED                     	;# 
   613  0FEE                     	;# 
   614  0FEF                     	;# 
   615  0000                     	;# 
   616  0001                     	;# 
   617  0002                     	;# 
   618  0003                     	;# 
   619  0004                     	;# 
   620  0005                     	;# 
   621  0006                     	;# 
   622  0007                     	;# 
   623  0008                     	;# 
   624  0009                     	;# 
   625  000A                     	;# 
   626  000B                     	;# 
   627  000C                     	;# 
   628  000D                     	;# 
   629  000E                     	;# 
   630  0010                     	;# 
   631  0011                     	;# 
   632  0012                     	;# 
   633  0013                     	;# 
   634  0014                     	;# 
   635  0015                     	;# 
   636  0016                     	;# 
   637  0017                     	;# 
   638  0018                     	;# 
   639  0018                     	;# 
   640  0019                     	;# 
   641  001A                     	;# 
   642  001B                     	;# 
   643  001C                     	;# 
   644  001C                     	;# 
   645  001D                     	;# 
   646  001E                     	;# 
   647  001F                     	;# 
   648  008C                     	;# 
   649  008D                     	;# 
   650  008E                     	;# 
   651  0090                     	;# 
   652  0091                     	;# 
   653  0092                     	;# 
   654  0093                     	;# 
   655  0094                     	;# 
   656  0095                     	;# 
   657  0096                     	;# 
   658  0097                     	;# 
   659  0098                     	;# 
   660  0099                     	;# 
   661  009A                     	;# 
   662  009B                     	;# 
   663  009C                     	;# 
   664  009D                     	;# 
   665  009E                     	;# 
   666  009F                     	;# 
   667  010C                     	;# 
   668  010D                     	;# 
   669  010E                     	;# 
   670  0111                     	;# 
   671  0112                     	;# 
   672  0113                     	;# 
   673  0114                     	;# 
   674  0115                     	;# 
   675  0116                     	;# 
   676  0117                     	;# 
   677  0118                     	;# 
   678  0119                     	;# 
   679  011A                     	;# 
   680  011B                     	;# 
   681  011C                     	;# 
   682  011D                     	;# 
   683  018C                     	;# 
   684  018D                     	;# 
   685  018E                     	;# 
   686  0191                     	;# 
   687  0191                     	;# 
   688  0192                     	;# 
   689  0193                     	;# 
   690  0193                     	;# 
   691  0194                     	;# 
   692  0195                     	;# 
   693  0196                     	;# 
   694  0197                     	;# 
   695  0199                     	;# 
   696  0199                     	;# 
   697  0199                     	;# 
   698  019A                     	;# 
   699  019A                     	;# 
   700  019A                     	;# 
   701  019B                     	;# 
   702  019B                     	;# 
   703  019B                     	;# 
   704  019B                     	;# 
   705  019B                     	;# 
   706  019C                     	;# 
   707  019C                     	;# 
   708  019C                     	;# 
   709  019D                     	;# 
   710  019D                     	;# 
   711  019D                     	;# 
   712  019E                     	;# 
   713  019E                     	;# 
   714  019E                     	;# 
   715  019F                     	;# 
   716  019F                     	;# 
   717  019F                     	;# 
   718  019F                     	;# 
   719  019F                     	;# 
   720  020C                     	;# 
   721  020D                     	;# 
   722  020E                     	;# 
   723  0210                     	;# 
   724  0211                     	;# 
   725  0211                     	;# 
   726  0212                     	;# 
   727  0212                     	;# 
   728  0213                     	;# 
   729  0213                     	;# 
   730  0214                     	;# 
   731  0214                     	;# 
   732  0215                     	;# 
   733  0215                     	;# 
   734  0215                     	;# 
   735  0215                     	;# 
   736  0216                     	;# 
   737  0216                     	;# 
   738  0217                     	;# 
   739  0217                     	;# 
   740  021B                     	;# 
   741  021C                     	;# 
   742  021D                     	;# 
   743  021E                     	;# 
   744  021F                     	;# 
   745  028C                     	;# 
   746  028D                     	;# 
   747  028E                     	;# 
   748  0291                     	;# 
   749  0291                     	;# 
   750  0292                     	;# 
   751  0293                     	;# 
   752  0294                     	;# 
   753  0295                     	;# 
   754  0295                     	;# 
   755  0296                     	;# 
   756  0297                     	;# 
   757  0298                     	;# 
   758  0299                     	;# 
   759  0299                     	;# 
   760  029A                     	;# 
   761  029B                     	;# 
   762  029C                     	;# 
   763  029E                     	;# 
   764  029F                     	;# 
   765  030C                     	;# 
   766  030D                     	;# 
   767  030E                     	;# 
   768  0315                     	;# 
   769  0316                     	;# 
   770  0317                     	;# 
   771  0318                     	;# 
   772  0319                     	;# 
   773  031B                     	;# 
   774  031C                     	;# 
   775  031D                     	;# 
   776  031E                     	;# 
   777  031F                     	;# 
   778  038C                     	;# 
   779  038D                     	;# 
   780  038E                     	;# 
   781  0390                     	;# 
   782  0391                     	;# 
   783  0392                     	;# 
   784  0393                     	;# 
   785  0394                     	;# 
   786  0395                     	;# 
   787  0396                     	;# 
   788  0397                     	;# 
   789  0398                     	;# 
   790  0399                     	;# 
   791  039D                     	;# 
   792  039E                     	;# 
   793  039F                     	;# 
   794  040D                     	;# 
   795  040F                     	;# 
   796  040F                     	;# 
   797  0410                     	;# 
   798  0411                     	;# 
   799  0412                     	;# 
   800  0413                     	;# 
   801  0413                     	;# 
   802  0414                     	;# 
   803  0414                     	;# 
   804  0415                     	;# 
   805  0416                     	;# 
   806  0417                     	;# 
   807  0418                     	;# 
   808  041A                     	;# 
   809  041A                     	;# 
   810  041B                     	;# 
   811  041B                     	;# 
   812  041C                     	;# 
   813  041D                     	;# 
   814  041E                     	;# 
   815  041F                     	;# 
   816  048E                     	;# 
   817  048E                     	;# 
   818  048F                     	;# 
   819  0490                     	;# 
   820  0491                     	;# 
   821  0492                     	;# 
   822  0493                     	;# 
   823  0493                     	;# 
   824  0494                     	;# 
   825  0494                     	;# 
   826  0495                     	;# 
   827  0496                     	;# 
   828  0497                     	;# 
   829  0498                     	;# 
   830  049A                     	;# 
   831  049A                     	;# 
   832  049B                     	;# 
   833  049B                     	;# 
   834  049C                     	;# 
   835  049D                     	;# 
   836  049E                     	;# 
   837  049F                     	;# 
   838  050F                     	;# 
   839  0510                     	;# 
   840  0511                     	;# 
   841  0512                     	;# 
   842  0513                     	;# 
   843  0514                     	;# 
   844  0515                     	;# 
   845  0516                     	;# 
   846  0517                     	;# 
   847  0518                     	;# 
   848  0519                     	;# 
   849  051A                     	;# 
   850  058D                     	;# 
   851  058E                     	;# 
   852  058F                     	;# 
   853  058F                     	;# 
   854  058F                     	;# 
   855  0590                     	;# 
   856  0590                     	;# 
   857  0591                     	;# 
   858  0592                     	;# 
   859  0592                     	;# 
   860  0592                     	;# 
   861  0593                     	;# 
   862  0593                     	;# 
   863  0594                     	;# 
   864  0595                     	;# 
   865  0595                     	;# 
   866  0596                     	;# 
   867  0597                     	;# 
   868  0597                     	;# 
   869  0598                     	;# 
   870  0599                     	;# 
   871  0599                     	;# 
   872  0599                     	;# 
   873  059A                     	;# 
   874  059A                     	;# 
   875  059E                     	;# 
   876  059F                     	;# 
   877  059F                     	;# 
   878  0614                     	;# 
   879  0614                     	;# 
   880  0615                     	;# 
   881  0616                     	;# 
   882  0617                     	;# 
   883  0617                     	;# 
   884  0618                     	;# 
   885  0619                     	;# 
   886  061A                     	;# 
   887  061A                     	;# 
   888  061B                     	;# 
   889  061C                     	;# 
   890  068D                     	;# 
   891  068E                     	;# 
   892  068F                     	;# 
   893  0690                     	;# 
   894  0691                     	;# 
   895  0692                     	;# 
   896  0693                     	;# 
   897  0694                     	;# 
   898  0695                     	;# 
   899  0696                     	;# 
   900  0697                     	;# 
   901  0698                     	;# 
   902  0699                     	;# 
   903  069A                     	;# 
   904  069B                     	;# 
   905  069C                     	;# 
   906  069D                     	;# 
   907  069E                     	;# 
   908  069F                     	;# 
   909  070D                     	;# 
   910  070E                     	;# 
   911  070F                     	;# 
   912  0710                     	;# 
   913  0711                     	;# 
   914  0712                     	;# 
   915  0713                     	;# 
   916  0714                     	;# 
   917  0715                     	;# 
   918  0716                     	;# 
   919  0717                     	;# 
   920  0718                     	;# 
   921  0719                     	;# 
   922  071A                     	;# 
   923  071B                     	;# 
   924  071C                     	;# 
   925  071D                     	;# 
   926  071E                     	;# 
   927  071F                     	;# 
   928  078E                     	;# 
   929  078F                     	;# 
   930  0790                     	;# 
   931  0791                     	;# 
   932  0792                     	;# 
   933  0793                     	;# 
   934  0794                     	;# 
   935  0795                     	;# 
   936  0796                     	;# 
   937  0797                     	;# 
   938  0798                     	;# 
   939  0799                     	;# 
   940  079A                     	;# 
   941  079B                     	;# 
   942  079C                     	;# 
   943  079D                     	;# 
   944  079E                     	;# 
   945  079F                     	;# 
   946  080D                     	;# 
   947  080E                     	;# 
   948  080F                     	;# 
   949  0810                     	;# 
   950  0811                     	;# 
   951  0812                     	;# 
   952  0813                     	;# 
   953  0814                     	;# 
   954  0815                     	;# 
   955  0816                     	;# 
   956  0817                     	;# 
   957  0818                     	;# 
   958  0819                     	;# 
   959  081A                     	;# 
   960  081B                     	;# 
   961  081C                     	;# 
   962  081D                     	;# 
   963  081E                     	;# 
   964  081F                     	;# 
   965  090C                     	;# 
   966  090D                     	;# 
   967  090E                     	;# 
   968  090F                     	;# 
   969  0910                     	;# 
   970  0911                     	;# 
   971  0912                     	;# 
   972  0913                     	;# 
   973  0914                     	;# 
   974  0915                     	;# 
   975  0916                     	;# 
   976  0917                     	;# 
   977  0D8E                     	;# 
   978  0D8F                     	;# 
   979  0D90                     	;# 
   980  0D91                     	;# 
   981  0D91                     	;# 
   982  0D92                     	;# 
   983  0D93                     	;# 
   984  0D93                     	;# 
   985  0D94                     	;# 
   986  0D95                     	;# 
   987  0D95                     	;# 
   988  0D96                     	;# 
   989  0D97                     	;# 
   990  0D97                     	;# 
   991  0D98                     	;# 
   992  0D99                     	;# 
   993  0D99                     	;# 
   994  0D9A                     	;# 
   995  0D9B                     	;# 
   996  0D9C                     	;# 
   997  0D9C                     	;# 
   998  0D9D                     	;# 
   999  0D9D                     	;# 
  1000  0D9E                     	;# 
  1001  0D9F                     	;# 
  1002  0DA0                     	;# 
  1003  0DA1                     	;# 
  1004  0DA1                     	;# 
  1005  0DA2                     	;# 
  1006  0DA3                     	;# 
  1007  0DA3                     	;# 
  1008  0DA4                     	;# 
  1009  0DA5                     	;# 
  1010  0DA5                     	;# 
  1011  0DA6                     	;# 
  1012  0DA7                     	;# 
  1013  0DA7                     	;# 
  1014  0DA8                     	;# 
  1015  0DA9                     	;# 
  1016  0DA9                     	;# 
  1017  0DAA                     	;# 
  1018  0DAB                     	;# 
  1019  0DAC                     	;# 
  1020  0DAC                     	;# 
  1021  0DAD                     	;# 
  1022  0DAD                     	;# 
  1023  0DAE                     	;# 
  1024  0DAF                     	;# 
  1025  0DB0                     	;# 
  1026  0DB1                     	;# 
  1027  0DB1                     	;# 
  1028  0DB2                     	;# 
  1029  0DB3                     	;# 
  1030  0DB3                     	;# 
  1031  0DB4                     	;# 
  1032  0DB5                     	;# 
  1033  0DB5                     	;# 
  1034  0DB6                     	;# 
  1035  0DB7                     	;# 
  1036  0DB7                     	;# 
  1037  0DB8                     	;# 
  1038  0DB9                     	;# 
  1039  0DB9                     	;# 
  1040  0DBA                     	;# 
  1041  0DBB                     	;# 
  1042  0DBC                     	;# 
  1043  0DBC                     	;# 
  1044  0DBD                     	;# 
  1045  0DBD                     	;# 
  1046  0DBE                     	;# 
  1047  0DBF                     	;# 
  1048  0DC0                     	;# 
  1049  0E0C                     	;# 
  1050  0E0D                     	;# 
  1051  0E0E                     	;# 
  1052  0E0F                     	;# 
  1053  0E10                     	;# 
  1054  0E11                     	;# 
  1055  0E12                     	;# 
  1056  0E13                     	;# 
  1057  0E14                     	;# 
  1058  0E15                     	;# 
  1059  0E15                     	;# 
  1060  0E15                     	;# 
  1061  0E16                     	;# 
  1062  0E16                     	;# 
  1063  0E16                     	;# 
  1064  0E17                     	;# 
  1065  0E17                     	;# 
  1066  0E17                     	;# 
  1067  0E18                     	;# 
  1068  0E18                     	;# 
  1069  0E18                     	;# 
  1070  0E19                     	;# 
  1071  0E1A                     	;# 
  1072  0E1B                     	;# 
  1073  0E1D                     	;# 
  1074  0E1E                     	;# 
  1075  0E1F                     	;# 
  1076  0E21                     	;# 
  1077  0E22                     	;# 
  1078  0E23                     	;# 
  1079  0E24                     	;# 
  1080  0E25                     	;# 
  1081  0E26                     	;# 
  1082  0E27                     	;# 
  1083  0E28                     	;# 
  1084  0E29                     	;# 
  1085  0E2D                     	;# 
  1086  0E2E                     	;# 
  1087  0E2F                     	;# 
  1088  0E30                     	;# 
  1089  0E31                     	;# 
  1090  0E32                     	;# 
  1091  0E35                     	;# 
  1092  0E36                     	;# 
  1093  0E37                     	;# 
  1094  0E38                     	;# 
  1095  0E39                     	;# 
  1096  0E3A                     	;# 
  1097  0E3B                     	;# 
  1098  0E3C                     	;# 
  1099  0E3D                     	;# 
  1100  0E3E                     	;# 
  1101  0E90                     	;# 
  1102  0E91                     	;# 
  1103  0E92                     	;# 
  1104  0E93                     	;# 
  1105  0E94                     	;# 
  1106  0E95                     	;# 
  1107  0E96                     	;# 
  1108  0E97                     	;# 
  1109  0E98                     	;# 
  1110  0E99                     	;# 
  1111  0E9A                     	;# 
  1112  0E9B                     	;# 
  1113  0E9C                     	;# 
  1114  0E9D                     	;# 
  1115  0E9E                     	;# 
  1116  0E9F                     	;# 
  1117  0EA0                     	;# 
  1118  0EA1                     	;# 
  1119  0EA2                     	;# 
  1120  0EA3                     	;# 
  1121  0EA4                     	;# 
  1122  0EA5                     	;# 
  1123  0EA6                     	;# 
  1124  0EA7                     	;# 
  1125  0F0F                     	;# 
  1126  0F10                     	;# 
  1127  0F11                     	;# 
  1128  0F12                     	;# 
  1129  0F13                     	;# 
  1130  0F14                     	;# 
  1131  0F15                     	;# 
  1132  0F16                     	;# 
  1133  0F17                     	;# 
  1134  0F18                     	;# 
  1135  0F19                     	;# 
  1136  0F1A                     	;# 
  1137  0F1B                     	;# 
  1138  0F1C                     	;# 
  1139  0F1D                     	;# 
  1140  0F1E                     	;# 
  1141  0F1F                     	;# 
  1142  0F20                     	;# 
  1143  0F21                     	;# 
  1144  0F22                     	;# 
  1145  0F23                     	;# 
  1146  0F24                     	;# 
  1147  0F25                     	;# 
  1148  0F26                     	;# 
  1149  0F27                     	;# 
  1150  0F28                     	;# 
  1151  0F29                     	;# 
  1152  0F2A                     	;# 
  1153  0F2B                     	;# 
  1154  0F2C                     	;# 
  1155  0F2D                     	;# 
  1156  0F2E                     	;# 
  1157  0F2F                     	;# 
  1158  0F30                     	;# 
  1159  0F31                     	;# 
  1160  0F32                     	;# 
  1161  0F33                     	;# 
  1162  0F34                     	;# 
  1163  0F35                     	;# 
  1164  0F36                     	;# 
  1165  0F37                     	;# 
  1166  0FE4                     	;# 
  1167  0FE5                     	;# 
  1168  0FE6                     	;# 
  1169  0FE7                     	;# 
  1170  0FE8                     	;# 
  1171  0FE9                     	;# 
  1172  0FEA                     	;# 
  1173  0FEB                     	;# 
  1174  0FED                     	;# 
  1175  0FEE                     	;# 
  1176  0FEF                     	;# 
  1177                           
  1178                           	psect	idataBANK0
  1179  03F2                     __pidataBANK0:	
  1180                           
  1181                           ;initializer for _current
  1182  03F2  3417               	retlw	low (_Sine_Sample| (0+32768))
  1183  03F3  3483               	retlw	high (_Sine_Sample| (0+32768))
  1184                           
  1185                           	psect	stringtext1
  1186  0317                     __pstringtext1:	
  1187  0317                     _Sine_Sample:	
  1188  0317  3480               	retlw	128
  1189  0318  3400               	retlw	0
  1190  0319  341B               	retlw	low ((_Sine_Sample| (0+32768)+4))
  1191  031A  3483               	retlw	high ((_Sine_Sample| (0+32768)+4))
  1192  031B  3490               	retlw	144
  1193  031C  3400               	retlw	0
  1194  031D  341F               	retlw	low ((_Sine_Sample| (0+32768)+8))
  1195  031E  3483               	retlw	high ((_Sine_Sample| (0+32768)+8))
  1196  031F  34A0               	retlw	160
  1197  0320  3400               	retlw	0
  1198  0321  3423               	retlw	low ((_Sine_Sample| (0+32768)+12))
  1199  0322  3483               	retlw	high ((_Sine_Sample| (0+32768)+12))
  1200  0323  34B0               	retlw	176
  1201  0324  3400               	retlw	0
  1202  0325  3427               	retlw	low ((_Sine_Sample| (0+32768)+16))
  1203  0326  3483               	retlw	high ((_Sine_Sample| (0+32768)+16))
  1204  0327  34BF               	retlw	191
  1205  0328  3400               	retlw	0
  1206  0329  342B               	retlw	low ((_Sine_Sample| (0+32768)+20))
  1207  032A  3483               	retlw	high ((_Sine_Sample| (0+32768)+20))
  1208  032B  34CD               	retlw	205
  1209  032C  3400               	retlw	0
  1210  032D  342F               	retlw	low ((_Sine_Sample| (0+32768)+24))
  1211  032E  3483               	retlw	high ((_Sine_Sample| (0+32768)+24))
  1212  032F  34DA               	retlw	218
  1213  0330  3400               	retlw	0
  1214  0331  3433               	retlw	low ((_Sine_Sample| (0+32768)+28))
  1215  0332  3483               	retlw	high ((_Sine_Sample| (0+32768)+28))
  1216  0333  34E5               	retlw	229
  1217  0334  3400               	retlw	0
  1218  0335  3437               	retlw	low ((_Sine_Sample| (0+32768)+32))
  1219  0336  3483               	retlw	high ((_Sine_Sample| (0+32768)+32))
  1220  0337  34EE               	retlw	238
  1221  0338  3400               	retlw	0
  1222  0339  343B               	retlw	low ((_Sine_Sample| (0+32768)+36))
  1223  033A  3483               	retlw	high ((_Sine_Sample| (0+32768)+36))
  1224  033B  34F5               	retlw	245
  1225  033C  3400               	retlw	0
  1226  033D  343F               	retlw	low ((_Sine_Sample| (0+32768)+40))
  1227  033E  3483               	retlw	high ((_Sine_Sample| (0+32768)+40))
  1228  033F  34FB               	retlw	251
  1229  0340  3400               	retlw	0
  1230  0341  3443               	retlw	low ((_Sine_Sample| (0+32768)+44))
  1231  0342  3483               	retlw	high ((_Sine_Sample| (0+32768)+44))
  1232  0343  34FE               	retlw	254
  1233  0344  3400               	retlw	0
  1234  0345  3447               	retlw	low ((_Sine_Sample| (0+32768)+48))
  1235  0346  3483               	retlw	high ((_Sine_Sample| (0+32768)+48))
  1236  0347  34FF               	retlw	255
  1237  0348  3400               	retlw	0
  1238  0349  344B               	retlw	low ((_Sine_Sample| (0+32768)+52))
  1239  034A  3483               	retlw	high ((_Sine_Sample| (0+32768)+52))
  1240  034B  34FE               	retlw	254
  1241  034C  3400               	retlw	0
  1242  034D  344F               	retlw	low ((_Sine_Sample| (0+32768)+56))
  1243  034E  3483               	retlw	high ((_Sine_Sample| (0+32768)+56))
  1244  034F  34FB               	retlw	251
  1245  0350  3400               	retlw	0
  1246  0351  3453               	retlw	low ((_Sine_Sample| (0+32768)+60))
  1247  0352  3483               	retlw	high ((_Sine_Sample| (0+32768)+60))
  1248  0353  34F5               	retlw	245
  1249  0354  3400               	retlw	0
  1250  0355  3457               	retlw	low ((_Sine_Sample| (0+32768)+64))
  1251  0356  3483               	retlw	high ((_Sine_Sample| (0+32768)+64))
  1252  0357  34EE               	retlw	238
  1253  0358  3400               	retlw	0
  1254  0359  345B               	retlw	low ((_Sine_Sample| (0+32768)+68))
  1255  035A  3483               	retlw	high ((_Sine_Sample| (0+32768)+68))
  1256  035B  34E5               	retlw	229
  1257  035C  3400               	retlw	0
  1258  035D  345F               	retlw	low ((_Sine_Sample| (0+32768)+72))
  1259  035E  3483               	retlw	high ((_Sine_Sample| (0+32768)+72))
  1260  035F  34DA               	retlw	218
  1261  0360  3400               	retlw	0
  1262  0361  3463               	retlw	low ((_Sine_Sample| (0+32768)+76))
  1263  0362  3483               	retlw	high ((_Sine_Sample| (0+32768)+76))
  1264  0363  34CD               	retlw	205
  1265  0364  3400               	retlw	0
  1266  0365  3467               	retlw	low ((_Sine_Sample| (0+32768)+80))
  1267  0366  3483               	retlw	high ((_Sine_Sample| (0+32768)+80))
  1268  0367  34BF               	retlw	191
  1269  0368  3400               	retlw	0
  1270  0369  346B               	retlw	low ((_Sine_Sample| (0+32768)+84))
  1271  036A  3483               	retlw	high ((_Sine_Sample| (0+32768)+84))
  1272  036B  34B0               	retlw	176
  1273  036C  3400               	retlw	0
  1274  036D  346F               	retlw	low ((_Sine_Sample| (0+32768)+88))
  1275  036E  3483               	retlw	high ((_Sine_Sample| (0+32768)+88))
  1276  036F  34A0               	retlw	160
  1277  0370  3400               	retlw	0
  1278  0371  3473               	retlw	low ((_Sine_Sample| (0+32768)+92))
  1279  0372  3483               	retlw	high ((_Sine_Sample| (0+32768)+92))
  1280  0373  3490               	retlw	144
  1281  0374  3400               	retlw	0
  1282  0375  3477               	retlw	low ((_Sine_Sample| (0+32768)+96))
  1283  0376  3483               	retlw	high ((_Sine_Sample| (0+32768)+96))
  1284  0377  3480               	retlw	128
  1285  0378  3400               	retlw	0
  1286  0379  347B               	retlw	low ((_Sine_Sample| (0+32768)+100))
  1287  037A  3483               	retlw	high ((_Sine_Sample| (0+32768)+100))
  1288  037B  346F               	retlw	111
  1289  037C  3400               	retlw	0
  1290  037D  347F               	retlw	low ((_Sine_Sample| (0+32768)+104))
  1291  037E  3483               	retlw	high ((_Sine_Sample| (0+32768)+104))
  1292  037F  345F               	retlw	95
  1293  0380  3400               	retlw	0
  1294  0381  3483               	retlw	low ((_Sine_Sample| (0+32768)+108))
  1295  0382  3483               	retlw	high ((_Sine_Sample| (0+32768)+108))
  1296  0383  344F               	retlw	79
  1297  0384  3400               	retlw	0
  1298  0385  3487               	retlw	low ((_Sine_Sample| (0+32768)+112))
  1299  0386  3483               	retlw	high ((_Sine_Sample| (0+32768)+112))
  1300  0387  3440               	retlw	64
  1301  0388  3400               	retlw	0
  1302  0389  348B               	retlw	low ((_Sine_Sample| (0+32768)+116))
  1303  038A  3483               	retlw	high ((_Sine_Sample| (0+32768)+116))
  1304  038B  3432               	retlw	50
  1305  038C  3400               	retlw	0
  1306  038D  348F               	retlw	low ((_Sine_Sample| (0+32768)+120))
  1307  038E  3483               	retlw	high ((_Sine_Sample| (0+32768)+120))
  1308  038F  3425               	retlw	37
  1309  0390  3400               	retlw	0
  1310  0391  3493               	retlw	low ((_Sine_Sample| (0+32768)+124))
  1311  0392  3483               	retlw	high ((_Sine_Sample| (0+32768)+124))
  1312  0393  341A               	retlw	26
  1313  0394  3400               	retlw	0
  1314  0395  3497               	retlw	low ((_Sine_Sample| (0+32768)+128))
  1315  0396  3483               	retlw	high ((_Sine_Sample| (0+32768)+128))
  1316  0397  3411               	retlw	17
  1317  0398  3400               	retlw	0
  1318  0399  349B               	retlw	low ((_Sine_Sample| (0+32768)+132))
  1319  039A  3483               	retlw	high ((_Sine_Sample| (0+32768)+132))
  1320  039B  340A               	retlw	10
  1321  039C  3400               	retlw	0
  1322  039D  349F               	retlw	low ((_Sine_Sample| (0+32768)+136))
  1323  039E  3483               	retlw	high ((_Sine_Sample| (0+32768)+136))
  1324  039F  3404               	retlw	4
  1325  03A0  3400               	retlw	0
  1326  03A1  34A3               	retlw	low ((_Sine_Sample| (0+32768)+140))
  1327  03A2  3483               	retlw	high ((_Sine_Sample| (0+32768)+140))
  1328  03A3  3401               	retlw	1
  1329  03A4  3400               	retlw	0
  1330  03A5  34A7               	retlw	low ((_Sine_Sample| (0+32768)+144))
  1331  03A6  3483               	retlw	high ((_Sine_Sample| (0+32768)+144))
  1332  03A7  3400               	retlw	0
  1333  03A8  3400               	retlw	0
  1334  03A9  34AB               	retlw	low ((_Sine_Sample| (0+32768)+148))
  1335  03AA  3483               	retlw	high ((_Sine_Sample| (0+32768)+148))
  1336  03AB  3401               	retlw	1
  1337  03AC  3400               	retlw	0
  1338  03AD  34AF               	retlw	low ((_Sine_Sample| (0+32768)+152))
  1339  03AE  3483               	retlw	high ((_Sine_Sample| (0+32768)+152))
  1340  03AF  3404               	retlw	4
  1341  03B0  3400               	retlw	0
  1342  03B1  34B3               	retlw	low ((_Sine_Sample| (0+32768)+156))
  1343  03B2  3483               	retlw	high ((_Sine_Sample| (0+32768)+156))
  1344  03B3  340A               	retlw	10
  1345  03B4  3400               	retlw	0
  1346  03B5  34B7               	retlw	low ((_Sine_Sample| (0+32768)+160))
  1347  03B6  3483               	retlw	high ((_Sine_Sample| (0+32768)+160))
  1348  03B7  3411               	retlw	17
  1349  03B8  3400               	retlw	0
  1350  03B9  34BB               	retlw	low ((_Sine_Sample| (0+32768)+164))
  1351  03BA  3483               	retlw	high ((_Sine_Sample| (0+32768)+164))
  1352  03BB  341A               	retlw	26
  1353  03BC  3400               	retlw	0
  1354  03BD  34BF               	retlw	low ((_Sine_Sample| (0+32768)+168))
  1355  03BE  3483               	retlw	high ((_Sine_Sample| (0+32768)+168))
  1356  03BF  3425               	retlw	37
  1357  03C0  3400               	retlw	0
  1358  03C1  34C3               	retlw	low ((_Sine_Sample| (0+32768)+172))
  1359  03C2  3483               	retlw	high ((_Sine_Sample| (0+32768)+172))
  1360  03C3  3432               	retlw	50
  1361  03C4  3400               	retlw	0
  1362  03C5  34C7               	retlw	low ((_Sine_Sample| (0+32768)+176))
  1363  03C6  3483               	retlw	high ((_Sine_Sample| (0+32768)+176))
  1364  03C7  3440               	retlw	64
  1365  03C8  3400               	retlw	0
  1366  03C9  34CB               	retlw	low ((_Sine_Sample| (0+32768)+180))
  1367  03CA  3483               	retlw	high ((_Sine_Sample| (0+32768)+180))
  1368  03CB  344F               	retlw	79
  1369  03CC  3400               	retlw	0
  1370  03CD  34CF               	retlw	low ((_Sine_Sample| (0+32768)+184))
  1371  03CE  3483               	retlw	high ((_Sine_Sample| (0+32768)+184))
  1372  03CF  345F               	retlw	95
  1373  03D0  3400               	retlw	0
  1374  03D1  34D3               	retlw	low ((_Sine_Sample| (0+32768)+188))
  1375  03D2  3483               	retlw	high ((_Sine_Sample| (0+32768)+188))
  1376  03D3  346F               	retlw	111
  1377  03D4  3400               	retlw	0
  1378  03D5  34D7               	retlw	low ((_Sine_Sample| (0+32768)+192))
  1379  03D6  3483               	retlw	high ((_Sine_Sample| (0+32768)+192))
  1380  03D7  3480               	retlw	128
  1381  03D8  3400               	retlw	0
  1382  03D9  3417               	retlw	low (_Sine_Sample| (0+32768))
  1383  03DA  3483               	retlw	high (_Sine_Sample| (0+32768))
  1384  03DB                     __end_of_Sine_Sample:	
  1385  0014                     _PIR4bits	set	20
  1386  000D                     _PORTBbits	set	13
  1387  001A                     _T1CONbits	set	26
  1388  0018                     _TMR1L	set	24
  1389  0019                     _TMR1H	set	25
  1390  0011                     _PIR1bits	set	17
  1391  001B                     _T1GCON	set	27
  1392  001A                     _T1CON	set	26
  1393  008C                     _TRISA	set	140
  1394  008D                     _TRISBbits	set	141
  1395  009C                     _OSCSTATbits	set	156
  1396  009B                     _OSCCON	set	155
  1397  018D                     _ANSELBbits	set	397
  1398  0415                     _T4CONbits	set	1045
  1399  0414                     _T4PR	set	1044
  1400  0416                     _T4HLT	set	1046
  1401  0415                     _T4CON	set	1045
  1402  0417                     _T4CLKCON	set	1047
  1403  0495                     _T2CONbits	set	1173
  1404  0495                     _T2CON	set	1173
  1405  0497                     _T2CLKCON	set	1175
  1406  0494                     _T2PR	set	1172
  1407  058D                     _DACLDbits	set	1421
  1408  058F                     _DAC1REFL	set	1423
  1409  0590                     _DAC1REFH	set	1424
  1410  058E                     _DAC1CON0	set	1422
  1411                           
  1412                           ; #config settings
  1413  0000                     
  1414                           	psect	cinit
  1415  002A                     start_initialization:	
  1416  002A                     __initialization:	
  1417                           
  1418                           ; Initialize objects allocated to BANK0
  1419  002A  3183  23F2  3180   	fcall	__pidataBANK0	;fetch initializer
  1420  002D  00BA               	movwf	__pdataBANK0& (0+127)
  1421  002E  3183  23F3         	fcall	__pidataBANK0+1	;fetch initializer
  1422  0030  00BB               	movwf	(__pdataBANK0+1)& (0+127)
  1423                           
  1424                           ; Clear objects allocated to COMMON
  1425  0031  01F3               	clrf	__pbssCOMMON& (0+127)
  1426                           
  1427                           ; Clear objects allocated to BANK0
  1428  0032  01B8               	clrf	__pbssBANK0& (0+127)
  1429  0033  01B9               	clrf	(__pbssBANK0+1)& (0+127)
  1430  0034                     end_of_initialization:	
  1431                           ;End of C runtime variable initialization code
  1432                           
  1433  0034                     __end_of__initialization:	
  1434  0034  107E               	bcf	int$flags,0	;clear compiler interrupt flag (level 1)
  1435  0035  0020               	movlb	0
  1436  0036  3180  2838         	ljmp	_main	;jump to C main() function
  1437                           
  1438                           	psect	bssCOMMON
  1439  0073                     __pbssCOMMON:	
  1440  0073                     _ArrayIndex:	
  1441  0073                     	ds	1
  1442                           
  1443                           	psect	bssBANK0
  1444  0038                     __pbssBANK0:	
  1445  0038                     _audio_output:	
  1446  0038                     	ds	2
  1447                           
  1448                           	psect	dataBANK0
  1449  003A                     __pdataBANK0:	
  1450  003A                     _current:	
  1451  003A                     	ds	2
  1452                           
  1453                           	psect	cstackCOMMON
  1454  0070                     __pcstackCOMMON:	
  1455  0070                     ?_ConfigureTimer1:	
  1456  0070                     ?_ConfigureTimer2:	
  1457                           ; 1 bytes @ 0x0
  1458                           
  1459  0070                     ?_ConfigureTimer4:	
  1460                           ; 1 bytes @ 0x0
  1461                           
  1462  0070                     ?_main:	
  1463                           ; 1 bytes @ 0x0
  1464                           
  1465  0070                     ?_playSineWave:	
  1466                           ; 1 bytes @ 0x0
  1467                           
  1468  0070                     ??_playSineWave:	
  1469                           ; 1 bytes @ 0x0
  1470                           
  1471                           
  1472                           ; 1 bytes @ 0x0
  1473  0070                     	ds	3
  1474  0073                     ??_ConfigureTimer1:	
  1475  0073                     ??_ConfigureTimer2:	
  1476                           ; 1 bytes @ 0x3
  1477                           
  1478  0073                     ??_ConfigureTimer4:	
  1479                           ; 1 bytes @ 0x3
  1480                           
  1481                           
  1482                           	psect	cstackBANK0
  1483  0020                     __pcstackBANK0:	
  1484                           ; 1 bytes @ 0x3
  1485                           
  1486  0020                     ??_main:	
  1487                           
  1488                           ; 1 bytes @ 0x0
  1489  0020                     	ds	8
  1490  0028                     main@play_count:	
  1491                           
  1492                           ; 2 bytes @ 0x8
  1493  0028                     	ds	2
  1494  002A                     main@timer2p:	
  1495                           
  1496                           ; 4 bytes @ 0xA
  1497  002A                     	ds	4
  1498  002E                     main@timer2p_469:	
  1499                           
  1500                           ; 4 bytes @ 0xE
  1501  002E                     	ds	4
  1502  0032                     main@duration:	
  1503                           
  1504                           ; 4 bytes @ 0x12
  1505  0032                     	ds	4
  1506  0036                     main@button_counter:	
  1507                           
  1508                           ; 1 bytes @ 0x16
  1509  0036                     	ds	1
  1510  0037                     main@hold:	
  1511                           
  1512                           ; 1 bytes @ 0x17
  1513  0037                     	ds	1
  1514                           
  1515                           	psect	maintext
  1516  0038                     __pmaintext:	
  1517 ;;
  1518 ;;Main: autosize = 0, tempsize = 8, incstack = 0, save=0
  1519 ;;
  1520 ;; *************** function _main *****************
  1521 ;; Defined at:
  1522 ;;		line 62 in file "Sensor_Main.c"
  1523 ;; Parameters:    Size  Location     Type
  1524 ;;		None
  1525 ;; Auto vars:     Size  Location     Type
  1526 ;;  timer2p         4   14[BANK0 ] unsigned long 
  1527 ;;  play_count      2    8[BANK0 ] int 
  1528 ;;  timer2p         4   10[BANK0 ] unsigned long 
  1529 ;;  duration        4   18[BANK0 ] unsigned long 
  1530 ;;  hold            1   23[BANK0 ] volatile unsigned char 
  1531 ;;  button_count    1   22[BANK0 ] volatile unsigned char 
  1532 ;; Return value:  Size  Location     Type
  1533 ;;                  1    wreg      void 
  1534 ;; Registers used:
  1535 ;;		wreg, fsr0l, fsr0h, status,2, status,0, pclath, cstack
  1536 ;; Tracked objects:
  1537 ;;		On entry : B1F/0
  1538 ;;		On exit  : 0/0
  1539 ;;		Unchanged: 0/0
  1540 ;; Data sizes:     COMMON   BANK0   BANK1   BANK2   BANK3   BANK4   BANK5   BANK6   BANK7   BANK8   BANK9  BANK10  BANK1
      +1  BANK12  BANK13  BANK14  BANK15  BANK16  BANK17  BANK18  BANK19  BANK20  BANK21  BANK22  BANK23  BANK24  BANK25
  1541 ;;      Params:         0       0       0       0       0       0       0       0       0       0       0       0       
      +0       0       0       0       0       0       0       0       0       0       0       0       0       0       0
  1542 ;;      Locals:         0      16       0       0       0       0       0       0       0       0       0       0       
      +0       0       0       0       0       0       0       0       0       0       0       0       0       0       0
  1543 ;;      Temps:          0       8       0       0       0       0       0       0       0       0       0       0       
      +0       0       0       0       0       0       0       0       0       0       0       0       0       0       0
  1544 ;;      Totals:         0      24       0       0       0       0       0       0       0       0       0       0       
      +0       0       0       0       0       0       0       0       0       0       0       0       0       0       0
  1545 ;;Total ram usage:       24 bytes
  1546 ;; Hardware stack levels required when called:    2
  1547 ;; This function calls:
  1548 ;;		_ConfigureTimer1
  1549 ;;		_ConfigureTimer2
  1550 ;;		_ConfigureTimer4
  1551 ;; This function is called by:
  1552 ;;		Startup code after reset
  1553 ;; This function uses a non-reentrant model
  1554 ;;
  1555                           
  1556                           
  1557                           ;psect for function _main
  1558  0038                     _main:	
  1559                           
  1560                           ;Sensor_Main.c: 65:     OSCCON = 0xF4;
  1561                           
  1562                           ;incstack = 0
  1563                           ; Regs used in _main: [wreg-fsr0h+status,2+status,0+pclath+cstack]
  1564  0038  30F4               	movlw	244
  1565  0039  0021               	movlb	1	; select bank1
  1566  003A  009B               	movwf	27	;volatile
  1567  003B                     l86:	
  1568                           ;Sensor_Main.c: 66:     while(OSCSTATbits.HFIOFR == 0);
  1569                           
  1570  003B  1E1C               	btfss	28,4	;volatile
  1571  003C  283B               	goto	l86
  1572                           
  1573                           ;Sensor_Main.c: 68:     TRISBbits.TRISB0=0;
  1574  003D  100D               	bcf	13,0	;volatile
  1575                           
  1576                           ;Sensor_Main.c: 69:     TRISBbits.TRISB1=1;
  1577  003E  148D               	bsf	13,1	;volatile
  1578                           
  1579                           ;Sensor_Main.c: 70:     TRISBbits.TRISB2=1;
  1580  003F  150D               	bsf	13,2	;volatile
  1581                           
  1582                           ;Sensor_Main.c: 71:     TRISBbits.TRISB3=1;
  1583  0040  158D               	bsf	13,3	;volatile
  1584                           
  1585                           ;Sensor_Main.c: 72:     ANSELBbits.ANSB0=0;
  1586  0041  0023               	movlb	3	; select bank3
  1587  0042  100D               	bcf	13,0	;volatile
  1588                           
  1589                           ;Sensor_Main.c: 73:     ANSELBbits.ANSB1=0;
  1590  0043  108D               	bcf	13,1	;volatile
  1591                           
  1592                           ;Sensor_Main.c: 74:     ANSELBbits.ANSB2=0;
  1593  0044  110D               	bcf	13,2	;volatile
  1594                           
  1595                           ;Sensor_Main.c: 75:     ANSELBbits.ANSB3=0;
  1596  0045  118D               	bcf	13,3	;volatile
  1597                           
  1598                           ;Sensor_Main.c: 77:     TRISA = 251;
  1599  0046  30FB               	movlw	251
  1600  0047  0021               	movlb	1	; select bank1
  1601  0048  008C               	movwf	12	;volatile
  1602                           
  1603                           ;Sensor_Main.c: 78:     DAC1CON0 = 160;
  1604  0049  30A0               	movlw	160
  1605  004A  002B               	movlb	11	; select bank11
  1606  004B  008E               	movwf	14	;volatile
  1607                           
  1608                           ;Sensor_Main.c: 79:     DAC1REFH = 1;
  1609  004C  3001               	movlw	1
  1610  004D  0090               	movwf	16	;volatile
  1611                           
  1612                           ;Sensor_Main.c: 82:     ConfigureTimer1();
  1613  004E  3183  23EC  3180   	fcall	_ConfigureTimer1
  1614                           
  1615                           ;Sensor_Main.c: 83:     ConfigureTimer2();
  1616  0051  3183  23DB  3180   	fcall	_ConfigureTimer2
  1617                           
  1618                           ;Sensor_Main.c: 84:     ConfigureTimer4();
  1619  0054  3183  23E4  3180   	fcall	_ConfigureTimer4
  1620                           
  1621                           ;Sensor_Main.c: 90:     { T2PR = 1; PIR1bits.TMR2IF = 0; T2CONbits.ON = 1; };
  1622  0057  3001               	movlw	1
  1623  0058  0029               	movlb	9	; select bank9
  1624  0059  0094               	movwf	20	;volatile
  1625  005A  0020               	movlb	0	; select bank0
  1626  005B  1091               	bcf	17,1	;volatile
  1627  005C  0029               	movlb	9	; select bank9
  1628  005D  1795               	bsf	21,7	;volatile
  1629                           
  1630                           ;Sensor_Main.c: 113:     audio_output=0;
  1631  005E  0020               	movlb	0	; select bank0
  1632  005F  01B8               	clrf	_audio_output
  1633  0060  01B9               	clrf	_audio_output+1
  1634                           
  1635                           ;Sensor_Main.c: 114:     volatile char hold=0;
  1636  0061  01B7               	clrf	main@hold	;volatile
  1637                           
  1638                           ;Sensor_Main.c: 115:     volatile char button_counter=0;
  1639  0062  01B6               	clrf	main@button_counter	;volatile
  1640  0063  29BE               	goto	l1178
  1641  0064                     l1188:	
  1642                           
  1643                           ;Sensor_Main.c: 120:         {;Sensor_Main.c: 122:             PORTBbits.RB0 = 0;
  1644  0064  100D               	bcf	13,0	;volatile
  1645                           
  1646                           ;Sensor_Main.c: 123:             { T4PR = 20; PIR4bits.TMR4IF = 0; T4CONbits.ON = 1; };
  1647  0065  3014               	movlw	20
  1648  0066  0028               	movlb	8	; select bank8
  1649  0067  0094               	movwf	20	;volatile
  1650  0068  0020               	movlb	0	; select bank0
  1651  0069  1014               	bcf	20,0	;volatile
  1652  006A  0028               	movlb	8	; select bank8
  1653  006B  1795               	bsf	21,7	;volatile
  1654  006C                     l91:	
  1655                           ;Sensor_Main.c: 124:             { while(!PIR4bits.TMR4IF){{ if(audio_output){ DAC1REFL 
      +                          = current->item; DACLDbits.DAC1LD = 1; current = current->next; { while(!PIR1bits.TMR2IF
      +                          ); PIR1bits.TMR2IF = 0; }; } };} PIR4bits.TMR4IF = 0; };
  1656                           
  1657  006C  0020               	movlb	0	; select bank0
  1658  006D  1814               	btfsc	20,0	;volatile
  1659  006E  288F               	goto	l97
  1660  006F  0838               	movf	_audio_output,w
  1661  0070  0439               	iorwf	_audio_output+1,w
  1662  0071  1903               	btfsc	3,2
  1663  0072  286C               	goto	l91
  1664  0073  083A               	movf	_current,w
  1665  0074  0084               	movwf	4
  1666  0075  083B               	movf	_current+1,w
  1667  0076  0085               	movwf	5
  1668  0077  0800               	movf	0,w	;code access
  1669  0078  002B               	movlb	11	; select bank11
  1670  0079  008F               	movwf	15	;volatile
  1671  007A  140D               	bsf	13,0	;volatile
  1672  007B  0020               	movlb	0	; select bank0
  1673  007C  083B               	movf	_current+1,w
  1674  007D  00A1               	movwf	??_main+1
  1675  007E  083A               	movf	_current,w
  1676  007F  00A0               	movwf	??_main
  1677  0080  3002               	movlw	2
  1678  0081  0720               	addwf	??_main,w
  1679  0082  0084               	movwf	4
  1680  0083  0821               	movf	??_main+1,w
  1681  0084  1803               	skipnc
  1682  0085  0A21               	incf	??_main+1,w
  1683  0086  0085               	movwf	5
  1684  0087  3F00               	moviw [0]fsr0
  1685  0088  00BA               	movwf	_current
  1686  0089  3F01               	moviw [1]fsr0
  1687  008A  00BB               	movwf	_current+1
  1688  008B                     l94:	
  1689  008B  1C91               	btfss	17,1	;volatile
  1690  008C  288B               	goto	l94
  1691  008D  1091               	bcf	17,1	;volatile
  1692  008E  286C               	goto	l91
  1693  008F                     l97:	
  1694  008F  1014               	bcf	20,0	;volatile
  1695                           
  1696                           ;Sensor_Main.c: 126:             PORTBbits.RB0 = 1;
  1697  0090  140D               	bsf	13,0	;volatile
  1698                           
  1699                           ;Sensor_Main.c: 127:             { T4PR = 20; PIR4bits.TMR4IF = 0; T4CONbits.ON = 1; };
  1700  0091  3014               	movlw	20
  1701  0092  0028               	movlb	8	; select bank8
  1702  0093  0094               	movwf	20	;volatile
  1703  0094  0020               	movlb	0	; select bank0
  1704  0095  1014               	bcf	20,0	;volatile
  1705  0096  0028               	movlb	8	; select bank8
  1706  0097  1795               	bsf	21,7	;volatile
  1707  0098                     l98:	
  1708                           ;Sensor_Main.c: 128:             { while(!PIR4bits.TMR4IF){{ if(audio_output){ DAC1REFL 
      +                          = current->item; DACLDbits.DAC1LD = 1; current = current->next; { while(!PIR1bits.TMR2IF
      +                          ); PIR1bits.TMR2IF = 0; }; } };} PIR4bits.TMR4IF = 0; };
  1709                           
  1710  0098  0020               	movlb	0	; select bank0
  1711  0099  1814               	btfsc	20,0	;volatile
  1712  009A  28BB               	goto	l104
  1713  009B  0838               	movf	_audio_output,w
  1714  009C  0439               	iorwf	_audio_output+1,w
  1715  009D  1903               	btfsc	3,2
  1716  009E  2898               	goto	l98
  1717  009F  083A               	movf	_current,w
  1718  00A0  0084               	movwf	4
  1719  00A1  083B               	movf	_current+1,w
  1720  00A2  0085               	movwf	5
  1721  00A3  0800               	movf	0,w	;code access
  1722  00A4  002B               	movlb	11	; select bank11
  1723  00A5  008F               	movwf	15	;volatile
  1724  00A6  140D               	bsf	13,0	;volatile
  1725  00A7  0020               	movlb	0	; select bank0
  1726  00A8  083B               	movf	_current+1,w
  1727  00A9  00A1               	movwf	??_main+1
  1728  00AA  083A               	movf	_current,w
  1729  00AB  00A0               	movwf	??_main
  1730  00AC  3002               	movlw	2
  1731  00AD  0720               	addwf	??_main,w
  1732  00AE  0084               	movwf	4
  1733  00AF  0821               	movf	??_main+1,w
  1734  00B0  1803               	skipnc
  1735  00B1  0A21               	incf	??_main+1,w
  1736  00B2  0085               	movwf	5
  1737  00B3  3F00               	moviw [0]fsr0
  1738  00B4  00BA               	movwf	_current
  1739  00B5  3F01               	moviw [1]fsr0
  1740  00B6  00BB               	movwf	_current+1
  1741  00B7                     l101:	
  1742  00B7  1C91               	btfss	17,1	;volatile
  1743  00B8  28B7               	goto	l101
  1744  00B9  1091               	bcf	17,1	;volatile
  1745  00BA  2898               	goto	l98
  1746  00BB                     l104:	
  1747  00BB  1014               	bcf	20,0	;volatile
  1748                           
  1749                           ;Sensor_Main.c: 130:             PORTBbits.RB0 = 0;
  1750  00BC  100D               	bcf	13,0	;volatile
  1751                           
  1752                           ;Sensor_Main.c: 131:             __nop();
  1753  00BD  0000               	nop
  1754  00BE                     l105:	
  1755                           ;Sensor_Main.c: 135:             }
  1756                           
  1757                           ;Sensor_Main.c: 132:             while(PORTBbits.RB1 == 0)
  1758                           
  1759                           
  1760                           ;Sensor_Main.c: 132:             while(PORTBbits.RB1 == 0)
  1761  00BE  0020               	movlb	0	; select bank0
  1762  00BF  188D               	btfsc	13,1	;volatile
  1763  00C0  28E1               	goto	l111
  1764                           
  1765                           ;Sensor_Main.c: 133:             {;Sensor_Main.c: 134:                 { if(audio_output
      +                          ){ DAC1REFL = current->item; DACLDbits.DAC1LD = 1; current = current->next; { while(!PIR
      +                          1bits.TMR2IF); PIR1bits.TMR2IF = 0; }; } };
  1766  00C1  0838               	movf	_audio_output,w
  1767  00C2  0439               	iorwf	_audio_output+1,w
  1768  00C3  1903               	btfsc	3,2
  1769  00C4  28BE               	goto	l105
  1770  00C5  083A               	movf	_current,w
  1771  00C6  0084               	movwf	4
  1772  00C7  083B               	movf	_current+1,w
  1773  00C8  0085               	movwf	5
  1774  00C9  0800               	movf	0,w	;code access
  1775  00CA  002B               	movlb	11	; select bank11
  1776  00CB  008F               	movwf	15	;volatile
  1777  00CC  140D               	bsf	13,0	;volatile
  1778  00CD  0020               	movlb	0	; select bank0
  1779  00CE  083B               	movf	_current+1,w
  1780  00CF  00A1               	movwf	??_main+1
  1781  00D0  083A               	movf	_current,w
  1782  00D1  00A0               	movwf	??_main
  1783  00D2  3002               	movlw	2
  1784  00D3  0720               	addwf	??_main,w
  1785  00D4  0084               	movwf	4
  1786  00D5  0821               	movf	??_main+1,w
  1787  00D6  1803               	skipnc
  1788  00D7  0A21               	incf	??_main+1,w
  1789  00D8  0085               	movwf	5
  1790  00D9  3F00               	moviw [0]fsr0
  1791  00DA  00BA               	movwf	_current
  1792  00DB  3F01               	moviw [1]fsr0
  1793  00DC  00BB               	movwf	_current+1
  1794  00DD                     l108:	
  1795  00DD  1C91               	btfss	17,1	;volatile
  1796  00DE  28DD               	goto	l108
  1797  00DF  1091               	bcf	17,1	;volatile
  1798  00E0  28BE               	goto	l105
  1799  00E1                     l111:	
  1800                           
  1801                           ;Sensor_Main.c: 137:             { PIR1bits.TMR1IF=0; TMR1H = 0; TMR1L = 0; T1CONbits.ON
      +                           = 1; };
  1802  00E1  1011               	bcf	17,0	;volatile
  1803  00E2  0199               	clrf	25	;volatile
  1804  00E3  0198               	clrf	24	;volatile
  1805  00E4  141A               	bsf	26,0	;volatile
  1806                           
  1807                           ;Sensor_Main.c: 138:             while((PIR1bits.TMR1IF==0) && (PORTBbits.RB1 == 1) )
  1808  00E5  2905               	goto	l112
  1809  00E6                     l1230:	
  1810                           
  1811                           ;Sensor_Main.c: 139:             {;Sensor_Main.c: 140:                 { if(audio_output
      +                          ){ DAC1REFL = current->item; DACLDbits.DAC1LD = 1; current = current->next; { while(!PIR
      +                          1bits.TMR2IF); PIR1bits.TMR2IF = 0; }; } };
  1812  00E6  0838               	movf	_audio_output,w
  1813  00E7  0439               	iorwf	_audio_output+1,w
  1814  00E8  1903               	btfsc	3,2
  1815  00E9  2905               	goto	l112
  1816  00EA  083A               	movf	_current,w
  1817  00EB  0084               	movwf	4
  1818  00EC  083B               	movf	_current+1,w
  1819  00ED  0085               	movwf	5
  1820  00EE  0800               	movf	0,w	;code access
  1821  00EF  002B               	movlb	11	; select bank11
  1822  00F0  008F               	movwf	15	;volatile
  1823  00F1  140D               	bsf	13,0	;volatile
  1824  00F2  0020               	movlb	0	; select bank0
  1825  00F3  083B               	movf	_current+1,w
  1826  00F4  00A1               	movwf	??_main+1
  1827  00F5  083A               	movf	_current,w
  1828  00F6  00A0               	movwf	??_main
  1829  00F7  3002               	movlw	2
  1830  00F8  0720               	addwf	??_main,w
  1831  00F9  0084               	movwf	4
  1832  00FA  0821               	movf	??_main+1,w
  1833  00FB  1803               	skipnc
  1834  00FC  0A21               	incf	??_main+1,w
  1835  00FD  0085               	movwf	5
  1836  00FE  3F00               	moviw [0]fsr0
  1837  00FF  00BA               	movwf	_current
  1838  0100  3F01               	moviw [1]fsr0
  1839  0101  00BB               	movwf	_current+1
  1840  0102                     l115:	
  1841  0102  1C91               	btfss	17,1	;volatile
  1842  0103  2902               	goto	l115
  1843  0104  1091               	bcf	17,1	;volatile
  1844  0105                     l112:	
  1845                           ;Sensor_Main.c: 141:             }
  1846                           
  1847                           
  1848                           ;Sensor_Main.c: 138:             while((PIR1bits.TMR1IF==0) && (PORTBbits.RB1 == 1) )
  1849  0105  1811               	btfsc	17,0	;volatile
  1850  0106  2909               	goto	l1240
  1851  0107  188D               	btfsc	13,1	;volatile
  1852  0108  28E6               	goto	l1230
  1853  0109                     l1240:	
  1854                           
  1855                           ;Sensor_Main.c: 143:             duration = TMR1H;
  1856  0109  0819               	movf	25,w	;volatile
  1857  010A  00A0               	movwf	??_main
  1858  010B  01A1               	clrf	??_main+1
  1859  010C  01A2               	clrf	??_main+2
  1860  010D  01A3               	clrf	??_main+3
  1861  010E  0823               	movf	??_main+3,w
  1862  010F  00B5               	movwf	main@duration+3
  1863  0110  0822               	movf	??_main+2,w
  1864  0111  00B4               	movwf	main@duration+2
  1865  0112  0821               	movf	??_main+1,w
  1866  0113  00B3               	movwf	main@duration+1
  1867  0114  0820               	movf	??_main,w
  1868  0115  00B2               	movwf	main@duration
  1869                           
  1870                           ;Sensor_Main.c: 144:             duration = (duration<<8)+TMR1L;
  1871  0116  0818               	movf	24,w	;volatile
  1872  0117  00A0               	movwf	??_main
  1873  0118  01A1               	clrf	??_main+1
  1874  0119  01A2               	clrf	??_main+2
  1875  011A  01A3               	clrf	??_main+3
  1876  011B  0832               	movf	main@duration,w
  1877  011C  00A4               	movwf	??_main+4
  1878  011D  0833               	movf	main@duration+1,w
  1879  011E  00A5               	movwf	??_main+5
  1880  011F  0834               	movf	main@duration+2,w
  1881  0120  00A6               	movwf	??_main+6
  1882  0121  0835               	movf	main@duration+3,w
  1883  0122  00A7               	movwf	??_main+7
  1884  0123  3008               	movlw	8
  1885  0124                     u1165:	
  1886  0124  35A4               	lslf	??_main+4,f
  1887  0125  0DA5               	rlf	??_main+5,f
  1888  0126  0DA6               	rlf	??_main+6,f
  1889  0127  0DA7               	rlf	??_main+7,f
  1890  0128  0B89               	decfsz	9,f
  1891  0129  2924               	goto	u1165
  1892  012A  0824               	movf	??_main+4,w
  1893  012B  07A0               	addwf	??_main,f
  1894  012C  0825               	movf	??_main+5,w
  1895  012D  3DA1               	addwfc	??_main+1,f
  1896  012E  0826               	movf	??_main+6,w
  1897  012F  3DA2               	addwfc	??_main+2,f
  1898  0130  0827               	movf	??_main+7,w
  1899  0131  3DA3               	addwfc	??_main+3,f
  1900  0132  0823               	movf	??_main+3,w
  1901  0133  00B5               	movwf	main@duration+3
  1902  0134  0822               	movf	??_main+2,w
  1903  0135  00B4               	movwf	main@duration+2
  1904  0136  0821               	movf	??_main+1,w
  1905  0137  00B3               	movwf	main@duration+1
  1906  0138  0820               	movf	??_main,w
  1907  0139  00B2               	movwf	main@duration
  1908                           
  1909                           ;Sensor_Main.c: 147:             long unsigned int timer2p=(duration << 4)+(duration<<2)
      +                          ;
  1910  013A  0832               	movf	main@duration,w
  1911  013B  00A0               	movwf	??_main
  1912  013C  0833               	movf	main@duration+1,w
  1913  013D  00A1               	movwf	??_main+1
  1914  013E  0834               	movf	main@duration+2,w
  1915  013F  00A2               	movwf	??_main+2
  1916  0140  0835               	movf	main@duration+3,w
  1917  0141  00A3               	movwf	??_main+3
  1918  0142  3002               	movlw	2
  1919  0143                     u1175:	
  1920  0143  35A0               	lslf	??_main,f
  1921  0144  0DA1               	rlf	??_main+1,f
  1922  0145  0DA2               	rlf	??_main+2,f
  1923  0146  0DA3               	rlf	??_main+3,f
  1924  0147  0B89               	decfsz	9,f
  1925  0148  2943               	goto	u1175
  1926  0149  0832               	movf	main@duration,w
  1927  014A  00A4               	movwf	??_main+4
  1928  014B  0833               	movf	main@duration+1,w
  1929  014C  00A5               	movwf	??_main+5
  1930  014D  0834               	movf	main@duration+2,w
  1931  014E  00A6               	movwf	??_main+6
  1932  014F  0835               	movf	main@duration+3,w
  1933  0150  00A7               	movwf	??_main+7
  1934  0151  3004               	movlw	4
  1935  0152                     u1185:	
  1936  0152  35A4               	lslf	??_main+4,f
  1937  0153  0DA5               	rlf	??_main+5,f
  1938  0154  0DA6               	rlf	??_main+6,f
  1939  0155  0DA7               	rlf	??_main+7,f
  1940  0156  0B89               	decfsz	9,f
  1941  0157  2952               	goto	u1185
  1942  0158  0824               	movf	??_main+4,w
  1943  0159  07A0               	addwf	??_main,f
  1944  015A  0825               	movf	??_main+5,w
  1945  015B  3DA1               	addwfc	??_main+1,f
  1946  015C  0826               	movf	??_main+6,w
  1947  015D  3DA2               	addwfc	??_main+2,f
  1948  015E  0827               	movf	??_main+7,w
  1949  015F  3DA3               	addwfc	??_main+3,f
  1950  0160  0823               	movf	??_main+3,w
  1951  0161  00AD               	movwf	main@timer2p+3
  1952  0162  0822               	movf	??_main+2,w
  1953  0163  00AC               	movwf	main@timer2p+2
  1954  0164  0821               	movf	??_main+1,w
  1955  0165  00AB               	movwf	main@timer2p+1
  1956  0166  0820               	movf	??_main,w
  1957  0167  00AA               	movwf	main@timer2p
  1958                           
  1959                           ;Sensor_Main.c: 148:             timer2p = timer2p>>10;
  1960  0168  082A               	movf	main@timer2p,w
  1961  0169  00A0               	movwf	??_main
  1962  016A  082B               	movf	main@timer2p+1,w
  1963  016B  00A1               	movwf	??_main+1
  1964  016C  082C               	movf	main@timer2p+2,w
  1965  016D  00A2               	movwf	??_main+2
  1966  016E  082D               	movf	main@timer2p+3,w
  1967  016F  00A3               	movwf	??_main+3
  1968  0170  300A               	movlw	10
  1969  0171                     u1195:	
  1970  0171  36A3               	lsrf	??_main+3,f
  1971  0172  0CA2               	rrf	??_main+2,f
  1972  0173  0CA1               	rrf	??_main+1,f
  1973  0174  0CA0               	rrf	??_main,f
  1974  0175  0B89               	decfsz	9,f
  1975  0176  2971               	goto	u1195
  1976  0177  0823               	movf	??_main+3,w
  1977  0178  00AD               	movwf	main@timer2p+3
  1978  0179  0822               	movf	??_main+2,w
  1979  017A  00AC               	movwf	main@timer2p+2
  1980  017B  0821               	movf	??_main+1,w
  1981  017C  00AB               	movwf	main@timer2p+1
  1982  017D  0820               	movf	??_main,w
  1983  017E  00AA               	movwf	main@timer2p
  1984                           
  1985                           ;Sensor_Main.c: 149:             if(timer2p<80)
  1986  017F  082D               	movf	main@timer2p+3,w
  1987  0180  1D03               	btfss	3,2
  1988  0181  2999               	goto	l121
  1989  0182  082C               	movf	main@timer2p+2,w
  1990  0183  1D03               	btfss	3,2
  1991  0184  2999               	goto	l121
  1992  0185  082B               	movf	main@timer2p+1,w
  1993  0186  1D03               	btfss	3,2
  1994  0187  2999               	goto	l121
  1995  0188  3050               	movlw	80
  1996  0189  022A               	subwf	main@timer2p,w
  1997  018A  1803               	btfsc	3,0
  1998  018B  2999               	goto	l121
  1999                           
  2000                           ;Sensor_Main.c: 150:             {;Sensor_Main.c: 151:                 { T2PR = (char)ti
      +                          mer2p; PIR1bits.TMR2IF = 0; T2CONbits.ON = 1; };
  2001  018C  082A               	movf	main@timer2p,w
  2002  018D  0029               	movlb	9	; select bank9
  2003  018E  0094               	movwf	20	;volatile
  2004  018F  0020               	movlb	0	; select bank0
  2005  0190  1091               	bcf	17,1	;volatile
  2006  0191  0029               	movlb	9	; select bank9
  2007  0192  1795               	bsf	21,7	;volatile
  2008                           
  2009                           ;Sensor_Main.c: 152:                 audio_output=1;
  2010  0193  3001               	movlw	1
  2011  0194  0020               	movlb	0	; select bank0
  2012  0195  00B8               	movwf	_audio_output
  2013  0196  3000               	movlw	0
  2014  0197  00B9               	movwf	_audio_output+1
  2015                           
  2016                           ;Sensor_Main.c: 153:             }
  2017  0198  299C               	goto	l123
  2018  0199                     l121:	
  2019                           ;Sensor_Main.c: 154:             else
  2020                           
  2021                           
  2022                           ;Sensor_Main.c: 155:             {;Sensor_Main.c: 156:                 PIR1bits.TMR2IF=1
      +                          ;
  2023  0199  1491               	bsf	17,1	;volatile
  2024                           
  2025                           ;Sensor_Main.c: 157:                 audio_output=0;
  2026  019A  01B8               	clrf	_audio_output
  2027  019B  01B9               	clrf	_audio_output+1
  2028  019C                     l123:	
  2029                           ;Sensor_Main.c: 163:             }
  2030                           
  2031                           
  2032                           ;Sensor_Main.c: 160:             while(PIR1bits.TMR1IF==0)
  2033  019C  1811               	btfsc	17,0	;volatile
  2034  019D  29BE               	goto	l1178
  2035                           
  2036                           ;Sensor_Main.c: 161:             {;Sensor_Main.c: 162:                 { if(audio_output
      +                          ){ DAC1REFL = current->item; DACLDbits.DAC1LD = 1; current = current->next; { while(!PIR
      +                          1bits.TMR2IF); PIR1bits.TMR2IF = 0; }; } };
  2037  019E  0838               	movf	_audio_output,w
  2038  019F  0439               	iorwf	_audio_output+1,w
  2039  01A0  1903               	btfsc	3,2
  2040  01A1  299C               	goto	l123
  2041  01A2  083A               	movf	_current,w
  2042  01A3  0084               	movwf	4
  2043  01A4  083B               	movf	_current+1,w
  2044  01A5  0085               	movwf	5
  2045  01A6  0800               	movf	0,w	;code access
  2046  01A7  002B               	movlb	11	; select bank11
  2047  01A8  008F               	movwf	15	;volatile
  2048  01A9  140D               	bsf	13,0	;volatile
  2049  01AA  0020               	movlb	0	; select bank0
  2050  01AB  083B               	movf	_current+1,w
  2051  01AC  00A1               	movwf	??_main+1
  2052  01AD  083A               	movf	_current,w
  2053  01AE  00A0               	movwf	??_main
  2054  01AF  3002               	movlw	2
  2055  01B0  0720               	addwf	??_main,w
  2056  01B1  0084               	movwf	4
  2057  01B2  0821               	movf	??_main+1,w
  2058  01B3  1803               	skipnc
  2059  01B4  0A21               	incf	??_main+1,w
  2060  01B5  0085               	movwf	5
  2061  01B6  3F00               	moviw [0]fsr0
  2062  01B7  00BA               	movwf	_current
  2063  01B8  3F01               	moviw [1]fsr0
  2064  01B9  00BB               	movwf	_current+1
  2065  01BA                     l126:	
  2066  01BA  1C91               	btfss	17,1	;volatile
  2067  01BB  29BA               	goto	l126
  2068  01BC  1091               	bcf	17,1	;volatile
  2069  01BD  299C               	goto	l123
  2070  01BE                     l1178:	
  2071                           
  2072                           ;Sensor_Main.c: 117:     {;Sensor_Main.c: 118:         { PIR1bits.TMR1IF=0; TMR1H = 0; T
      +                          MR1L = 0; T1CONbits.ON = 1; };
  2073  01BE  1011               	bcf	17,0	;volatile
  2074  01BF  0199               	clrf	25	;volatile
  2075  01C0  0198               	clrf	24	;volatile
  2076  01C1  141A               	bsf	26,0	;volatile
  2077                           
  2078                           ;Sensor_Main.c: 119:         if(PORTBbits.RB3==1)
  2079  01C2  198D               	btfsc	13,3	;volatile
  2080  01C3  2864               	goto	l1188
  2081                           
  2082                           ;Sensor_Main.c: 167:         {;Sensor_Main.c: 170:             if(button_counter)
  2083  01C4  0836               	movf	main@button_counter,w	;volatile
  2084  01C5  1903               	btfsc	3,2
  2085  01C6  2AFE               	goto	l131
  2086                           
  2087                           ;Sensor_Main.c: 171:             {;Sensor_Main.c: 172:                 button_counter=0;
  2088  01C7  01B6               	clrf	main@button_counter	;volatile
  2089                           
  2090                           ;Sensor_Main.c: 174:                 PORTBbits.RB0 = 0;
  2091  01C8  100D               	bcf	13,0	;volatile
  2092                           
  2093                           ;Sensor_Main.c: 175:                 { T4PR = 20; PIR4bits.TMR4IF = 0; T4CONbits.ON = 1;
      +                           };
  2094  01C9  3014               	movlw	20
  2095  01CA  0028               	movlb	8	; select bank8
  2096  01CB  0094               	movwf	20	;volatile
  2097  01CC  0020               	movlb	0	; select bank0
  2098  01CD  1014               	bcf	20,0	;volatile
  2099  01CE  0028               	movlb	8	; select bank8
  2100  01CF  1795               	bsf	21,7	;volatile
  2101  01D0                     l132:	
  2102                           ;Sensor_Main.c: 176:                 { while(!PIR4bits.TMR4IF){{ if(audio_output){ DAC1R
      +                          EFL = current->item; DACLDbits.DAC1LD = 1; current = current->next; { while(!PIR1bits.TM
      +                          R2IF); PIR1bits.TMR2IF = 0; }; } };} PIR4bits.TMR4IF = 0; };
  2103                           
  2104  01D0  0020               	movlb	0	; select bank0
  2105  01D1  1814               	btfsc	20,0	;volatile
  2106  01D2  29F3               	goto	l138
  2107  01D3  0838               	movf	_audio_output,w
  2108  01D4  0439               	iorwf	_audio_output+1,w
  2109  01D5  1903               	btfsc	3,2
  2110  01D6  29D0               	goto	l132
  2111  01D7  083A               	movf	_current,w
  2112  01D8  0084               	movwf	4
  2113  01D9  083B               	movf	_current+1,w
  2114  01DA  0085               	movwf	5
  2115  01DB  0800               	movf	0,w	;code access
  2116  01DC  002B               	movlb	11	; select bank11
  2117  01DD  008F               	movwf	15	;volatile
  2118  01DE  140D               	bsf	13,0	;volatile
  2119  01DF  0020               	movlb	0	; select bank0
  2120  01E0  083B               	movf	_current+1,w
  2121  01E1  00A1               	movwf	??_main+1
  2122  01E2  083A               	movf	_current,w
  2123  01E3  00A0               	movwf	??_main
  2124  01E4  3002               	movlw	2
  2125  01E5  0720               	addwf	??_main,w
  2126  01E6  0084               	movwf	4
  2127  01E7  0821               	movf	??_main+1,w
  2128  01E8  1803               	skipnc
  2129  01E9  0A21               	incf	??_main+1,w
  2130  01EA  0085               	movwf	5
  2131  01EB  3F00               	moviw [0]fsr0
  2132  01EC  00BA               	movwf	_current
  2133  01ED  3F01               	moviw [1]fsr0
  2134  01EE  00BB               	movwf	_current+1
  2135  01EF                     l135:	
  2136  01EF  1C91               	btfss	17,1	;volatile
  2137  01F0  29EF               	goto	l135
  2138  01F1  1091               	bcf	17,1	;volatile
  2139  01F2  29D0               	goto	l132
  2140  01F3                     l138:	
  2141  01F3  1014               	bcf	20,0	;volatile
  2142                           
  2143                           ;Sensor_Main.c: 178:                 PORTBbits.RB0 = 1;
  2144  01F4  140D               	bsf	13,0	;volatile
  2145                           
  2146                           ;Sensor_Main.c: 179:                 { T4PR = 20; PIR4bits.TMR4IF = 0; T4CONbits.ON = 1;
      +                           };
  2147  01F5  3014               	movlw	20
  2148  01F6  0028               	movlb	8	; select bank8
  2149  01F7  0094               	movwf	20	;volatile
  2150  01F8  0020               	movlb	0	; select bank0
  2151  01F9  1014               	bcf	20,0	;volatile
  2152  01FA  0028               	movlb	8	; select bank8
  2153  01FB  1795               	bsf	21,7	;volatile
  2154  01FC                     l139:	
  2155                           ;Sensor_Main.c: 180:                 { while(!PIR4bits.TMR4IF){{ if(audio_output){ DAC1R
      +                          EFL = current->item; DACLDbits.DAC1LD = 1; current = current->next; { while(!PIR1bits.TM
      +                          R2IF); PIR1bits.TMR2IF = 0; }; } };} PIR4bits.TMR4IF = 0; };
  2156                           
  2157  01FC  0020               	movlb	0	; select bank0
  2158  01FD  1814               	btfsc	20,0	;volatile
  2159  01FE  2A1F               	goto	l145
  2160  01FF  0838               	movf	_audio_output,w
  2161  0200  0439               	iorwf	_audio_output+1,w
  2162  0201  1903               	btfsc	3,2
  2163  0202  29FC               	goto	l139
  2164  0203  083A               	movf	_current,w
  2165  0204  0084               	movwf	4
  2166  0205  083B               	movf	_current+1,w
  2167  0206  0085               	movwf	5
  2168  0207  0800               	movf	0,w	;code access
  2169  0208  002B               	movlb	11	; select bank11
  2170  0209  008F               	movwf	15	;volatile
  2171  020A  140D               	bsf	13,0	;volatile
  2172  020B  0020               	movlb	0	; select bank0
  2173  020C  083B               	movf	_current+1,w
  2174  020D  00A1               	movwf	??_main+1
  2175  020E  083A               	movf	_current,w
  2176  020F  00A0               	movwf	??_main
  2177  0210  3002               	movlw	2
  2178  0211  0720               	addwf	??_main,w
  2179  0212  0084               	movwf	4
  2180  0213  0821               	movf	??_main+1,w
  2181  0214  1803               	skipnc
  2182  0215  0A21               	incf	??_main+1,w
  2183  0216  0085               	movwf	5
  2184  0217  3F00               	moviw [0]fsr0
  2185  0218  00BA               	movwf	_current
  2186  0219  3F01               	moviw [1]fsr0
  2187  021A  00BB               	movwf	_current+1
  2188  021B                     l142:	
  2189  021B  1C91               	btfss	17,1	;volatile
  2190  021C  2A1B               	goto	l142
  2191  021D  1091               	bcf	17,1	;volatile
  2192  021E  29FC               	goto	l139
  2193  021F                     l145:	
  2194  021F  1014               	bcf	20,0	;volatile
  2195                           
  2196                           ;Sensor_Main.c: 182:                 PORTBbits.RB0 = 0;
  2197  0220  100D               	bcf	13,0	;volatile
  2198                           
  2199                           ;Sensor_Main.c: 183:                 __nop();
  2200  0221  0000               	nop
  2201  0222                     l146:	
  2202                           ;Sensor_Main.c: 184:                 while(PORTBbits.RB1 == 0){};
  2203                           
  2204  0222  0020               	movlb	0	; select bank0
  2205  0223  1C8D               	btfss	13,1	;volatile
  2206  0224  2A22               	goto	l146
  2207                           
  2208                           ;Sensor_Main.c: 185:                 { PIR1bits.TMR1IF=0; TMR1H = 0; TMR1L = 0; T1CONbit
      +                          s.ON = 1; };
  2209  0225  1011               	bcf	17,0	;volatile
  2210  0226  0199               	clrf	25	;volatile
  2211  0227  0198               	clrf	24	;volatile
  2212  0228  141A               	bsf	26,0	;volatile
  2213  0229  2A2C               	goto	l149
  2214  022A                     l1304:	
  2215  022A  1811               	btfsc	17,0	;volatile
  2216  022B  2A2E               	goto	l153
  2217  022C                     l149:	
  2218                           ;Sensor_Main.c: 187:                 while(PORTBbits.RB1 == 1&&PIR1bits.TMR1IF==0){};
  2219                           
  2220  022C  188D               	btfsc	13,1	;volatile
  2221  022D  2A2A               	goto	l1304
  2222  022E                     l153:	
  2223                           
  2224                           ;Sensor_Main.c: 189:                 if(PIR1bits.TMR1IF==1)
  2225  022E  1811               	btfsc	17,0	;volatile
  2226  022F  29BE               	goto	l1178
  2227                           
  2228                           ;Sensor_Main.c: 191:                 duration = TMR1H;
  2229  0230  0819               	movf	25,w	;volatile
  2230  0231  00A0               	movwf	??_main
  2231  0232  01A1               	clrf	??_main+1
  2232  0233  01A2               	clrf	??_main+2
  2233  0234  01A3               	clrf	??_main+3
  2234  0235  0823               	movf	??_main+3,w
  2235  0236  00B5               	movwf	main@duration+3
  2236  0237  0822               	movf	??_main+2,w
  2237  0238  00B4               	movwf	main@duration+2
  2238  0239  0821               	movf	??_main+1,w
  2239  023A  00B3               	movwf	main@duration+1
  2240  023B  0820               	movf	??_main,w
  2241  023C  00B2               	movwf	main@duration
  2242                           
  2243                           ;Sensor_Main.c: 192:                 duration = (duration<<8)+TMR1L;
  2244  023D  0818               	movf	24,w	;volatile
  2245  023E  00A0               	movwf	??_main
  2246  023F  01A1               	clrf	??_main+1
  2247  0240  01A2               	clrf	??_main+2
  2248  0241  01A3               	clrf	??_main+3
  2249  0242  0832               	movf	main@duration,w
  2250  0243  00A4               	movwf	??_main+4
  2251  0244  0833               	movf	main@duration+1,w
  2252  0245  00A5               	movwf	??_main+5
  2253  0246  0834               	movf	main@duration+2,w
  2254  0247  00A6               	movwf	??_main+6
  2255  0248  0835               	movf	main@duration+3,w
  2256  0249  00A7               	movwf	??_main+7
  2257  024A  3008               	movlw	8
  2258  024B                     u1355:	
  2259  024B  35A4               	lslf	??_main+4,f
  2260  024C  0DA5               	rlf	??_main+5,f
  2261  024D  0DA6               	rlf	??_main+6,f
  2262  024E  0DA7               	rlf	??_main+7,f
  2263  024F  0B89               	decfsz	9,f
  2264  0250  2A4B               	goto	u1355
  2265  0251  0824               	movf	??_main+4,w
  2266  0252  07A0               	addwf	??_main,f
  2267  0253  0825               	movf	??_main+5,w
  2268  0254  3DA1               	addwfc	??_main+1,f
  2269  0255  0826               	movf	??_main+6,w
  2270  0256  3DA2               	addwfc	??_main+2,f
  2271  0257  0827               	movf	??_main+7,w
  2272  0258  3DA3               	addwfc	??_main+3,f
  2273  0259  0823               	movf	??_main+3,w
  2274  025A  00B5               	movwf	main@duration+3
  2275  025B  0822               	movf	??_main+2,w
  2276  025C  00B4               	movwf	main@duration+2
  2277  025D  0821               	movf	??_main+1,w
  2278  025E  00B3               	movwf	main@duration+1
  2279  025F  0820               	movf	??_main,w
  2280  0260  00B2               	movwf	main@duration
  2281                           
  2282                           ;Sensor_Main.c: 195:                 long unsigned int timer2p=(duration << 4)+(duration
      +                          <<2);
  2283  0261  0832               	movf	main@duration,w
  2284  0262  00A0               	movwf	??_main
  2285  0263  0833               	movf	main@duration+1,w
  2286  0264  00A1               	movwf	??_main+1
  2287  0265  0834               	movf	main@duration+2,w
  2288  0266  00A2               	movwf	??_main+2
  2289  0267  0835               	movf	main@duration+3,w
  2290  0268  00A3               	movwf	??_main+3
  2291  0269  3002               	movlw	2
  2292  026A                     u1365:	
  2293  026A  35A0               	lslf	??_main,f
  2294  026B  0DA1               	rlf	??_main+1,f
  2295  026C  0DA2               	rlf	??_main+2,f
  2296  026D  0DA3               	rlf	??_main+3,f
  2297  026E  0B89               	decfsz	9,f
  2298  026F  2A6A               	goto	u1365
  2299  0270  0832               	movf	main@duration,w
  2300  0271  00A4               	movwf	??_main+4
  2301  0272  0833               	movf	main@duration+1,w
  2302  0273  00A5               	movwf	??_main+5
  2303  0274  0834               	movf	main@duration+2,w
  2304  0275  00A6               	movwf	??_main+6
  2305  0276  0835               	movf	main@duration+3,w
  2306  0277  00A7               	movwf	??_main+7
  2307  0278  3004               	movlw	4
  2308  0279                     u1375:	
  2309  0279  35A4               	lslf	??_main+4,f
  2310  027A  0DA5               	rlf	??_main+5,f
  2311  027B  0DA6               	rlf	??_main+6,f
  2312  027C  0DA7               	rlf	??_main+7,f
  2313  027D  0B89               	decfsz	9,f
  2314  027E  2A79               	goto	u1375
  2315  027F  0824               	movf	??_main+4,w
  2316  0280  07A0               	addwf	??_main,f
  2317  0281  0825               	movf	??_main+5,w
  2318  0282  3DA1               	addwfc	??_main+1,f
  2319  0283  0826               	movf	??_main+6,w
  2320  0284  3DA2               	addwfc	??_main+2,f
  2321  0285  0827               	movf	??_main+7,w
  2322  0286  3DA3               	addwfc	??_main+3,f
  2323  0287  0823               	movf	??_main+3,w
  2324  0288  00B1               	movwf	main@timer2p_469+3
  2325  0289  0822               	movf	??_main+2,w
  2326  028A  00B0               	movwf	main@timer2p_469+2
  2327  028B  0821               	movf	??_main+1,w
  2328  028C  00AF               	movwf	main@timer2p_469+1
  2329  028D  0820               	movf	??_main,w
  2330  028E  00AE               	movwf	main@timer2p_469
  2331                           
  2332                           ;Sensor_Main.c: 196:                 timer2p = timer2p>>10;
  2333  028F  082E               	movf	main@timer2p_469,w
  2334  0290  00A0               	movwf	??_main
  2335  0291  082F               	movf	main@timer2p_469+1,w
  2336  0292  00A1               	movwf	??_main+1
  2337  0293  0830               	movf	main@timer2p_469+2,w
  2338  0294  00A2               	movwf	??_main+2
  2339  0295  0831               	movf	main@timer2p_469+3,w
  2340  0296  00A3               	movwf	??_main+3
  2341  0297  300A               	movlw	10
  2342  0298                     u1385:	
  2343  0298  36A3               	lsrf	??_main+3,f
  2344  0299  0CA2               	rrf	??_main+2,f
  2345  029A  0CA1               	rrf	??_main+1,f
  2346  029B  0CA0               	rrf	??_main,f
  2347  029C  0B89               	decfsz	9,f
  2348  029D  2A98               	goto	u1385
  2349  029E  0823               	movf	??_main+3,w
  2350  029F  00B1               	movwf	main@timer2p_469+3
  2351  02A0  0822               	movf	??_main+2,w
  2352  02A1  00B0               	movwf	main@timer2p_469+2
  2353  02A2  0821               	movf	??_main+1,w
  2354  02A3  00AF               	movwf	main@timer2p_469+1
  2355  02A4  0820               	movf	??_main,w
  2356  02A5  00AE               	movwf	main@timer2p_469
  2357                           
  2358                           ;Sensor_Main.c: 197:                 if(timer2p<80)
  2359  02A6  0831               	movf	main@timer2p_469+3,w
  2360  02A7  1D03               	btfss	3,2
  2361  02A8  2AC0               	goto	l156
  2362  02A9  0830               	movf	main@timer2p_469+2,w
  2363  02AA  1D03               	btfss	3,2
  2364  02AB  2AC0               	goto	l156
  2365  02AC  082F               	movf	main@timer2p_469+1,w
  2366  02AD  1D03               	btfss	3,2
  2367  02AE  2AC0               	goto	l156
  2368  02AF  3050               	movlw	80
  2369  02B0  022E               	subwf	main@timer2p_469,w
  2370  02B1  1803               	btfsc	3,0
  2371  02B2  2AC0               	goto	l156
  2372                           
  2373                           ;Sensor_Main.c: 198:                 {;Sensor_Main.c: 199:                     { T2PR = 
      +                          (char)timer2p; PIR1bits.TMR2IF = 0; T2CONbits.ON = 1; };
  2374  02B3  082E               	movf	main@timer2p_469,w
  2375  02B4  0029               	movlb	9	; select bank9
  2376  02B5  0094               	movwf	20	;volatile
  2377  02B6  0020               	movlb	0	; select bank0
  2378  02B7  1091               	bcf	17,1	;volatile
  2379  02B8  0029               	movlb	9	; select bank9
  2380  02B9  1795               	bsf	21,7	;volatile
  2381                           
  2382                           ;Sensor_Main.c: 200:                     audio_output=1;
  2383  02BA  3001               	movlw	1
  2384  02BB  0020               	movlb	0	; select bank0
  2385  02BC  00B8               	movwf	_audio_output
  2386  02BD  3000               	movlw	0
  2387  02BE  00B9               	movwf	_audio_output+1
  2388                           
  2389                           ;Sensor_Main.c: 201:                 }
  2390  02BF  2AC3               	goto	l1326
  2391  02C0                     l156:	
  2392                           ;Sensor_Main.c: 202:                 else
  2393                           
  2394                           
  2395                           ;Sensor_Main.c: 203:                 {;Sensor_Main.c: 204:                     PIR1bits.
      +                          TMR2IF=1;
  2396  02C0  1491               	bsf	17,1	;volatile
  2397                           
  2398                           ;Sensor_Main.c: 205:                     audio_output=0;
  2399  02C1  01B8               	clrf	_audio_output
  2400  02C2  01B9               	clrf	_audio_output+1
  2401  02C3                     l1326:	
  2402                           
  2403                           ;Sensor_Main.c: 209:                 int play_count=10;
  2404  02C3  300A               	movlw	10
  2405  02C4  00A8               	movwf	main@play_count
  2406  02C5  3000               	movlw	0
  2407  02C6  00A9               	movwf	main@play_count+1
  2408  02C7                     l158:	
  2409                           ;Sensor_Main.c: 218:                 }
  2410                           
  2411                           ;Sensor_Main.c: 210:                 while(play_count>0)
  2412                           
  2413                           
  2414                           ;Sensor_Main.c: 210:                 while(play_count>0)
  2415  02C7  0829               	movf	main@play_count+1,w
  2416  02C8  3A80               	xorlw	128
  2417  02C9  00A0               	movwf	??_main
  2418  02CA  3080               	movlw	128
  2419  02CB  0220               	subwf	??_main,w
  2420  02CC  1D03               	skipz
  2421  02CD  2AD0               	goto	u1435
  2422  02CE  3001               	movlw	1
  2423  02CF  0228               	subwf	main@play_count,w
  2424  02D0                     u1435:	
  2425  02D0  1C03               	btfss	3,0
  2426  02D1  2B13               	goto	l173
  2427                           
  2428                           ;Sensor_Main.c: 211:                 {;Sensor_Main.c: 212:                     { PIR1bit
      +                          s.TMR1IF=0; TMR1H = 0; TMR1L = 0; T1CONbits.ON = 1; };
  2429  02D2  0020               	movlb	0	; select bank0
  2430  02D3  1011               	bcf	17,0	;volatile
  2431  02D4  0199               	clrf	25	;volatile
  2432  02D5  0198               	clrf	24	;volatile
  2433  02D6  141A               	bsf	26,0	;volatile
  2434  02D7                     l160:	
  2435                           ;Sensor_Main.c: 216:                     }
  2436                           
  2437                           ;Sensor_Main.c: 213:                     while(PIR1bits.TMR1IF==0)
  2438                           
  2439                           
  2440                           ;Sensor_Main.c: 213:                     while(PIR1bits.TMR1IF==0)
  2441  02D7  1811               	btfsc	17,0	;volatile
  2442  02D8  2AF9               	goto	l1340
  2443                           
  2444                           ;Sensor_Main.c: 214:                     {;Sensor_Main.c: 215:                         {
      +                           if(audio_output){ DAC1REFL = current->item; DACLDbits.DAC1LD = 1; current = current->ne
      +                          xt; { while(!PIR1bits.TMR2IF); PIR1bits.TMR2IF = 0; }; } };
  2445  02D9  0838               	movf	_audio_output,w
  2446  02DA  0439               	iorwf	_audio_output+1,w
  2447  02DB  1903               	btfsc	3,2
  2448  02DC  2AD7               	goto	l160
  2449  02DD  083A               	movf	_current,w
  2450  02DE  0084               	movwf	4
  2451  02DF  083B               	movf	_current+1,w
  2452  02E0  0085               	movwf	5
  2453  02E1  0800               	movf	0,w	;code access
  2454  02E2  002B               	movlb	11	; select bank11
  2455  02E3  008F               	movwf	15	;volatile
  2456  02E4  140D               	bsf	13,0	;volatile
  2457  02E5  0020               	movlb	0	; select bank0
  2458  02E6  083B               	movf	_current+1,w
  2459  02E7  00A1               	movwf	??_main+1
  2460  02E8  083A               	movf	_current,w
  2461  02E9  00A0               	movwf	??_main
  2462  02EA  3002               	movlw	2
  2463  02EB  0720               	addwf	??_main,w
  2464  02EC  0084               	movwf	4
  2465  02ED  0821               	movf	??_main+1,w
  2466  02EE  1803               	skipnc
  2467  02EF  0A21               	incf	??_main+1,w
  2468  02F0  0085               	movwf	5
  2469  02F1  3F00               	moviw [0]fsr0
  2470  02F2  00BA               	movwf	_current
  2471  02F3  3F01               	moviw [1]fsr0
  2472  02F4  00BB               	movwf	_current+1
  2473  02F5                     l163:	
  2474  02F5  1C91               	btfss	17,1	;volatile
  2475  02F6  2AF5               	goto	l163
  2476  02F7  1091               	bcf	17,1	;volatile
  2477  02F8  2AD7               	goto	l160
  2478  02F9                     l1340:	
  2479                           
  2480                           ;Sensor_Main.c: 217:                     play_count--;
  2481  02F9  30FF               	movlw	255
  2482  02FA  07A8               	addwf	main@play_count,f
  2483  02FB  30FF               	movlw	255
  2484  02FC  3DA9               	addwfc	main@play_count+1,f
  2485  02FD  2AC7               	goto	l158
  2486  02FE                     l131:	
  2487                           ;Sensor_Main.c: 220:             else
  2488                           
  2489                           
  2490                           ;Sensor_Main.c: 221:             {;Sensor_Main.c: 222:                 if(PORTBbits.RB2=
      +                          =1 && hold==0)
  2491  02FE  1D0D               	btfss	13,2	;volatile
  2492  02FF  2B0C               	goto	l169
  2493  0300  0837               	movf	main@hold,w	;volatile
  2494  0301  1D03               	btfss	3,2
  2495  0302  2B0C               	goto	l169
  2496                           
  2497                           ;Sensor_Main.c: 223:                 {;Sensor_Main.c: 224:                     hold=1;
  2498  0303  3001               	movlw	1
  2499  0304  00A0               	movwf	??_main
  2500  0305  0820               	movf	??_main,w
  2501  0306  00B7               	movwf	main@hold	;volatile
  2502                           
  2503                           ;Sensor_Main.c: 225:                     button_counter=1;
  2504  0307  3001               	movlw	1
  2505  0308  00A0               	movwf	??_main
  2506  0309  0820               	movf	??_main,w
  2507  030A  00B6               	movwf	main@button_counter	;volatile
  2508                           
  2509                           ;Sensor_Main.c: 226:                 }
  2510  030B  2B13               	goto	l173
  2511  030C                     l169:	
  2512                           ;Sensor_Main.c: 227:                 else if(PORTBbits.RB2==1 && hold==1)
  2513                           
  2514  030C  1D0D               	btfss	13,2	;volatile
  2515  030D  2B11               	goto	l1352
  2516  030E  0337               	decf	main@hold,w	;volatile
  2517  030F  1903               	btfsc	3,2
  2518  0310  29BE               	goto	l1178
  2519  0311                     l1352:	
  2520                           
  2521                           ;Sensor_Main.c: 232:                 {;Sensor_Main.c: 233:                     hold=0;
  2522  0311  01B7               	clrf	main@hold	;volatile
  2523                           
  2524                           ;Sensor_Main.c: 234:                     button_counter=0;
  2525  0312  01B6               	clrf	main@button_counter	;volatile
  2526  0313                     l173:	
  2527  0313  0020               	movlb	0	; select bank0
  2528  0314  1811               	btfsc	17,0	;volatile
  2529  0315  29BE               	goto	l1178
  2530  0316  2B13               	goto	l173
  2531  0317                     __end_of_main:	
  2532                           
  2533                           	psect	text1
  2534  03E4                     __ptext1:	
  2535 ;; *************** function _ConfigureTimer4 *****************
  2536 ;; Defined at:
  2537 ;;		line 35 in file "Timer.c"
  2538 ;; Parameters:    Size  Location     Type
  2539 ;;		None
  2540 ;; Auto vars:     Size  Location     Type
  2541 ;;		None
  2542 ;; Return value:  Size  Location     Type
  2543 ;;                  1    wreg      void 
  2544 ;; Registers used:
  2545 ;;		wreg
  2546 ;; Tracked objects:
  2547 ;;		On entry : 0/0
  2548 ;;		On exit  : 0/0
  2549 ;;		Unchanged: 0/0
  2550 ;; Data sizes:     COMMON   BANK0   BANK1   BANK2   BANK3   BANK4   BANK5   BANK6   BANK7   BANK8   BANK9  BANK10  BANK1
      +1  BANK12  BANK13  BANK14  BANK15  BANK16  BANK17  BANK18  BANK19  BANK20  BANK21  BANK22  BANK23  BANK24  BANK25
  2551 ;;      Params:         0       0       0       0       0       0       0       0       0       0       0       0       
      +0       0       0       0       0       0       0       0       0       0       0       0       0       0       0
  2552 ;;      Locals:         0       0       0       0       0       0       0       0       0       0       0       0       
      +0       0       0       0       0       0       0       0       0       0       0       0       0       0       0
  2553 ;;      Temps:          0       0       0       0       0       0       0       0       0       0       0       0       
      +0       0       0       0       0       0       0       0       0       0       0       0       0       0       0
  2554 ;;      Totals:         0       0       0       0       0       0       0       0       0       0       0       0       
      +0       0       0       0       0       0       0       0       0       0       0       0       0       0       0
  2555 ;;Total ram usage:        0 bytes
  2556 ;; Hardware stack levels used:    1
  2557 ;; Hardware stack levels required when called:    1
  2558 ;; This function calls:
  2559 ;;		Nothing
  2560 ;; This function is called by:
  2561 ;;		_main
  2562 ;; This function uses a non-reentrant model
  2563 ;;
  2564                           
  2565                           
  2566                           ;psect for function _ConfigureTimer4
  2567  03E4                     _ConfigureTimer4:	
  2568                           
  2569                           ;Timer.c: 38:     T4CLKCON = 0x02;
  2570                           
  2571                           ;incstack = 0
  2572                           ; Regs used in _ConfigureTimer4: [wreg]
  2573  03E4  3002               	movlw	2
  2574  03E5  0028               	movlb	8	; select bank8
  2575  03E6  0097               	movwf	23	;volatile
  2576                           
  2577                           ;Timer.c: 42:     T4CON = 0x30;
  2578  03E7  3030               	movlw	48
  2579  03E8  0095               	movwf	21	;volatile
  2580                           
  2581                           ;Timer.c: 46:     T4HLT = 0x08;
  2582  03E9  3008               	movlw	8
  2583  03EA  0096               	movwf	22	;volatile
  2584  03EB  0008               	return
  2585  03EC                     __end_of_ConfigureTimer4:	
  2586                           
  2587                           	psect	text2
  2588  03DB                     __ptext2:	
  2589 ;; *************** function _ConfigureTimer2 *****************
  2590 ;; Defined at:
  2591 ;;		line 18 in file "Timer.c"
  2592 ;; Parameters:    Size  Location     Type
  2593 ;;		None
  2594 ;; Auto vars:     Size  Location     Type
  2595 ;;		None
  2596 ;; Return value:  Size  Location     Type
  2597 ;;                  1    wreg      void 
  2598 ;; Registers used:
  2599 ;;		wreg, status,2
  2600 ;; Tracked objects:
  2601 ;;		On entry : 0/0
  2602 ;;		On exit  : 0/0
  2603 ;;		Unchanged: 0/0
  2604 ;; Data sizes:     COMMON   BANK0   BANK1   BANK2   BANK3   BANK4   BANK5   BANK6   BANK7   BANK8   BANK9  BANK10  BANK1
      +1  BANK12  BANK13  BANK14  BANK15  BANK16  BANK17  BANK18  BANK19  BANK20  BANK21  BANK22  BANK23  BANK24  BANK25
  2605 ;;      Params:         0       0       0       0       0       0       0       0       0       0       0       0       
      +0       0       0       0       0       0       0       0       0       0       0       0       0       0       0
  2606 ;;      Locals:         0       0       0       0       0       0       0       0       0       0       0       0       
      +0       0       0       0       0       0       0       0       0       0       0       0       0       0       0
  2607 ;;      Temps:          0       0       0       0       0       0       0       0       0       0       0       0       
      +0       0       0       0       0       0       0       0       0       0       0       0       0       0       0
  2608 ;;      Totals:         0       0       0       0       0       0       0       0       0       0       0       0       
      +0       0       0       0       0       0       0       0       0       0       0       0       0       0       0
  2609 ;;Total ram usage:        0 bytes
  2610 ;; Hardware stack levels used:    1
  2611 ;; Hardware stack levels required when called:    1
  2612 ;; This function calls:
  2613 ;;		Nothing
  2614 ;; This function is called by:
  2615 ;;		_main
  2616 ;; This function uses a non-reentrant model
  2617 ;;
  2618                           
  2619                           
  2620                           ;psect for function _ConfigureTimer2
  2621  03DB                     _ConfigureTimer2:	
  2622                           
  2623                           ;Timer.c: 20:     T2PR = 0;
  2624                           
  2625                           ;incstack = 0
  2626                           ; Regs used in _ConfigureTimer2: [wreg+status,2]
  2627  03DB  0029               	movlb	9	; select bank9
  2628  03DC  0194               	clrf	20	;volatile
  2629                           
  2630                           ;Timer.c: 24:     T2CLKCON = 0x03;
  2631  03DD  3003               	movlw	3
  2632  03DE  0097               	movwf	23	;volatile
  2633                           
  2634                           ;Timer.c: 30:     T2CON = 0xB0;
  2635  03DF  30B0               	movlw	176
  2636  03E0  0095               	movwf	21	;volatile
  2637                           
  2638                           ;Timer.c: 31:     PIR1bits.TMR2IF = 0;
  2639  03E1  0020               	movlb	0	; select bank0
  2640  03E2  1091               	bcf	17,1	;volatile
  2641  03E3  0008               	return
  2642  03E4                     __end_of_ConfigureTimer2:	
  2643                           
  2644                           	psect	text3
  2645  03EC                     __ptext3:	
  2646 ;; *************** function _ConfigureTimer1 *****************
  2647 ;; Defined at:
  2648 ;;		line 4 in file "Timer.c"
  2649 ;; Parameters:    Size  Location     Type
  2650 ;;		None
  2651 ;; Auto vars:     Size  Location     Type
  2652 ;;		None
  2653 ;; Return value:  Size  Location     Type
  2654 ;;                  1    wreg      void 
  2655 ;; Registers used:
  2656 ;;		wreg
  2657 ;; Tracked objects:
  2658 ;;		On entry : 0/0
  2659 ;;		On exit  : 0/0
  2660 ;;		Unchanged: 0/0
  2661 ;; Data sizes:     COMMON   BANK0   BANK1   BANK2   BANK3   BANK4   BANK5   BANK6   BANK7   BANK8   BANK9  BANK10  BANK1
      +1  BANK12  BANK13  BANK14  BANK15  BANK16  BANK17  BANK18  BANK19  BANK20  BANK21  BANK22  BANK23  BANK24  BANK25
  2662 ;;      Params:         0       0       0       0       0       0       0       0       0       0       0       0       
      +0       0       0       0       0       0       0       0       0       0       0       0       0       0       0
  2663 ;;      Locals:         0       0       0       0       0       0       0       0       0       0       0       0       
      +0       0       0       0       0       0       0       0       0       0       0       0       0       0       0
  2664 ;;      Temps:          0       0       0       0       0       0       0       0       0       0       0       0       
      +0       0       0       0       0       0       0       0       0       0       0       0       0       0       0
  2665 ;;      Totals:         0       0       0       0       0       0       0       0       0       0       0       0       
      +0       0       0       0       0       0       0       0       0       0       0       0       0       0       0
  2666 ;;Total ram usage:        0 bytes
  2667 ;; Hardware stack levels used:    1
  2668 ;; Hardware stack levels required when called:    1
  2669 ;; This function calls:
  2670 ;;		Nothing
  2671 ;; This function is called by:
  2672 ;;		_main
  2673 ;; This function uses a non-reentrant model
  2674 ;;
  2675                           
  2676                           
  2677                           ;psect for function _ConfigureTimer1
  2678  03EC                     _ConfigureTimer1:	
  2679                           
  2680                           ;Timer.c: 8:     T1CON = 0x34;
  2681                           
  2682                           ;incstack = 0
  2683                           ; Regs used in _ConfigureTimer1: [wreg]
  2684  03EC  3034               	movlw	52
  2685  03ED  0020               	movlb	0	; select bank0
  2686  03EE  009A               	movwf	26	;volatile
  2687                           
  2688                           ;Timer.c: 11:     T1GCON =0x50;
  2689  03EF  3050               	movlw	80
  2690  03F0  009B               	movwf	27	;volatile
  2691  03F1  0008               	return
  2692  03F2                     __end_of_ConfigureTimer1:	
  2693                           
  2694                           	psect	intentry
  2695  0004                     __pintentry:	
  2696 ;; *************** function _playSineWave *****************
  2697 ;; Defined at:
  2698 ;;		line 244 in file "Sensor_Main.c"
  2699 ;; Parameters:    Size  Location     Type
  2700 ;;		None
  2701 ;; Auto vars:     Size  Location     Type
  2702 ;;		None
  2703 ;; Return value:  Size  Location     Type
  2704 ;;                  1    wreg      void 
  2705 ;; Registers used:
  2706 ;;		wreg, fsr0l, fsr0h, status,2, status,0, pclath
  2707 ;; Tracked objects:
  2708 ;;		On entry : 0/0
  2709 ;;		On exit  : 0/0
  2710 ;;		Unchanged: 0/0
  2711 ;; Data sizes:     COMMON   BANK0   BANK1   BANK2   BANK3   BANK4   BANK5   BANK6   BANK7   BANK8   BANK9  BANK10  BANK1
      +1  BANK12  BANK13  BANK14  BANK15  BANK16  BANK17  BANK18  BANK19  BANK20  BANK21  BANK22  BANK23  BANK24  BANK25
  2712 ;;      Params:         0       0       0       0       0       0       0       0       0       0       0       0       
      +0       0       0       0       0       0       0       0       0       0       0       0       0       0       0
  2713 ;;      Locals:         0       0       0       0       0       0       0       0       0       0       0       0       
      +0       0       0       0       0       0       0       0       0       0       0       0       0       0       0
  2714 ;;      Temps:          3       0       0       0       0       0       0       0       0       0       0       0       
      +0       0       0       0       0       0       0       0       0       0       0       0       0       0       0
  2715 ;;      Totals:         3       0       0       0       0       0       0       0       0       0       0       0       
      +0       0       0       0       0       0       0       0       0       0       0       0       0       0       0
  2716 ;;Total ram usage:        3 bytes
  2717 ;; Hardware stack levels used:    1
  2718 ;; This function calls:
  2719 ;;		Nothing
  2720 ;; This function is called by:
  2721 ;;		Interrupt level 1
  2722 ;; This function uses a non-reentrant model
  2723 ;;
  2724                           
  2725  0004                     _playSineWave:	
  2726                           
  2727                           ;incstack = 0
  2728  0004  147E               	bsf	126,0	;set compiler interrupt flag (level 1)
  2729                           
  2730                           ; Regs used in _playSineWave: [wreg-fsr0h+status,2+status,0+pclath]
  2731  0005  3180               	pagesel	$
  2732                           
  2733                           ;Sensor_Main.c: 246:     if(audio_output){
  2734  0006  0020               	movlb	0	; select bank0
  2735  0007  0838               	movf	_audio_output,w
  2736  0008  0439               	iorwf	_audio_output+1,w
  2737  0009  1903               	btfsc	3,2
  2738  000A  2826               	goto	i1l186
  2739                           
  2740                           ;Sensor_Main.c: 247:         DAC1REFL = current->item;
  2741  000B  083A               	movf	_current,w
  2742  000C  0084               	movwf	4
  2743  000D  083B               	movf	_current+1,w
  2744  000E  0085               	movwf	5
  2745  000F  0800               	movf	0,w	;code access
  2746  0010  002B               	movlb	11	; select bank11
  2747  0011  008F               	movwf	15	;volatile
  2748                           
  2749                           ;Sensor_Main.c: 248:         DACLDbits.DAC1LD = 1;
  2750  0012  140D               	bsf	13,0	;volatile
  2751                           
  2752                           ;Sensor_Main.c: 249:         current = current->next;
  2753  0013  0020               	movlb	0	; select bank0
  2754  0014  083B               	movf	_current+1,w
  2755  0015  00F1               	movwf	??_playSineWave+1
  2756  0016  083A               	movf	_current,w
  2757  0017  00F0               	movwf	??_playSineWave
  2758  0018  3002               	movlw	2
  2759  0019  0770               	addwf	??_playSineWave,w
  2760  001A  0084               	movwf	4
  2761  001B  0871               	movf	??_playSineWave+1,w
  2762  001C  1803               	skipnc
  2763  001D  0A71               	incf	??_playSineWave+1,w
  2764  001E  0085               	movwf	5
  2765  001F  3F00               	moviw [0]fsr0
  2766  0020  00BA               	movwf	_current
  2767  0021  3F01               	moviw [1]fsr0
  2768  0022  00BB               	movwf	_current+1
  2769  0023                     i1l183:	
  2770                           ;Sensor_Main.c: 250:         { while(!PIR1bits.TMR2IF); PIR1bits.TMR2IF = 0; };
  2771                           
  2772  0023  1C91               	btfss	17,1	;volatile
  2773  0024  2823               	goto	i1l183
  2774  0025  1091               	bcf	17,1	;volatile
  2775  0026                     i1l186:	
  2776  0026  107E               	bcf	126,0	;clear compiler interrupt flag (level 1)
  2777  0027  0009               	retfie
  2778  0028                     __end_of_playSineWave:	
  2779  007E                     btemp	set	126	;btemp
  2780  007E                     int$flags	set	126
  2781  007E                     wtemp0	set	126


Data Sizes:
    Strings     0
    Constant    196
    Data        2
    BSS         3
    Persistent  32
    Stack       0

Auto Spaces:
    Space          Size  Autos    Used
    COMMON           14      3       4
    BANK0            80     24      28
    BANK1            80      0       0
    BANK2            80      0       0
    BANK3            80      0       0
    BANK4            80      0       0
    BANK5            80      0       0
    BANK6            80      0       0
    BANK7            80      0       0
    BANK8            80      0       0
    BANK9            80      0       0
    BANK10           80      0       0
    BANK11           80      0       0
    BANK12           48      0       0
    BANK13           80      0       0
    BANK14           80      0       0
    BANK15           80      0       0
    BANK16           80      0       0
    BANK17           80      0       0
    BANK18           80      0       0
    BANK19           80      0       0
    BANK20           80      0       0
    BANK21           80      0       0
    BANK22           80      0       0
    BANK23           80      0       0
    BANK24           80      0       0
    BANK25           32      0       0

Pointer List with Targets:

    current.next	PTR struct sine_node size(2) Largest target is 196
		 -> Sine_Sample(CODE[196]), 

    current	PTR struct sine_node size(2) Largest target is 196
		 -> Sine_Sample(CODE[196]), 

    S69sine_node$next	PTR struct sine_node size(2) Largest target is 196
		 -> Sine_Sample(CODE[196]), 

    Sine_Sample.next	PTR struct sine_node size(2) Largest target is 196
		 -> Sine_Sample(CODE[196]), 


Critical Paths under _main in COMMON

    None.

Critical Paths under _playSineWave in COMMON

    None.

Critical Paths under _main in BANK0

    None.

Critical Paths under _playSineWave in BANK0

    None.

Critical Paths under _main in BANK1

    None.

Critical Paths under _playSineWave in BANK1

    None.

Critical Paths under _main in BANK2

    None.

Critical Paths under _playSineWave in BANK2

    None.

Critical Paths under _main in BANK3

    None.

Critical Paths under _playSineWave in BANK3

    None.

Critical Paths under _main in BANK4

    None.

Critical Paths under _playSineWave in BANK4

    None.

Critical Paths under _main in BANK5

    None.

Critical Paths under _playSineWave in BANK5

    None.

Critical Paths under _main in BANK6

    None.

Critical Paths under _playSineWave in BANK6

    None.

Critical Paths under _main in BANK7

    None.

Critical Paths under _playSineWave in BANK7

    None.

Critical Paths under _main in BANK8

    None.

Critical Paths under _playSineWave in BANK8

    None.

Critical Paths under _main in BANK9

    None.

Critical Paths under _playSineWave in BANK9

    None.

Critical Paths under _main in BANK10

    None.

Critical Paths under _playSineWave in BANK10

    None.

Critical Paths under _main in BANK11

    None.

Critical Paths under _playSineWave in BANK11

    None.

Critical Paths under _main in BANK12

    None.

Critical Paths under _playSineWave in BANK12

    None.

Critical Paths under _main in BANK13

    None.

Critical Paths under _playSineWave in BANK13

    None.

Critical Paths under _main in BANK14

    None.

Critical Paths under _playSineWave in BANK14

    None.

Critical Paths under _main in BANK15

    None.

Critical Paths under _playSineWave in BANK15

    None.

Critical Paths under _main in BANK16

    None.

Critical Paths under _playSineWave in BANK16

    None.

Critical Paths under _main in BANK17

    None.

Critical Paths under _playSineWave in BANK17

    None.

Critical Paths under _main in BANK18

    None.

Critical Paths under _playSineWave in BANK18

    None.

Critical Paths under _main in BANK19

    None.

Critical Paths under _playSineWave in BANK19

    None.

Critical Paths under _main in BANK20

    None.

Critical Paths under _playSineWave in BANK20

    None.

Critical Paths under _main in BANK21

    None.

Critical Paths under _playSineWave in BANK21

    None.

Critical Paths under _main in BANK22

    None.

Critical Paths under _playSineWave in BANK22

    None.

Critical Paths under _main in BANK23

    None.

Critical Paths under _playSineWave in BANK23

    None.

Critical Paths under _main in BANK24

    None.

Critical Paths under _playSineWave in BANK24

    None.

Critical Paths under _main in BANK25

    None.

Critical Paths under _playSineWave in BANK25

    None.

Call Graph Tables:

 ---------------------------------------------------------------------------------
 (Depth) Function   	        Calls       Base Space   Used Autos Params    Refs
 ---------------------------------------------------------------------------------
 (0) _main                                                24    24      0     550
                                              0 BANK0     24    24      0
                    _ConfigureTimer1
                    _ConfigureTimer2
                    _ConfigureTimer4
 ---------------------------------------------------------------------------------
 (1) _ConfigureTimer4                                      0     0      0       0
 ---------------------------------------------------------------------------------
 (1) _ConfigureTimer2                                      0     0      0       0
 ---------------------------------------------------------------------------------
 (1) _ConfigureTimer1                                      0     0      0       0
 ---------------------------------------------------------------------------------
 Estimated maximum stack depth 1
 ---------------------------------------------------------------------------------
 (Depth) Function   	        Calls       Base Space   Used Autos Params    Refs
 ---------------------------------------------------------------------------------
 (2) _playSineWave                                         3     3      0       0
                                              0 COMMON     3     3      0
 ---------------------------------------------------------------------------------
 Estimated maximum stack depth 2
 ---------------------------------------------------------------------------------

 Call Graph Graphs:

 _main (ROOT)
   _ConfigureTimer1
   _ConfigureTimer2
   _ConfigureTimer4

 _playSineWave (ROOT)

 Address spaces:
Name               Size   Autos  Total    Cost      Usage
BIGRAM_1           3E0      0       0       0        0.0%
NULL                 0      0       0       0        0.0%
CODE                 0      0       0       0        0.0%
BIGRAM             3F0      0       0       1        0.0%
BITSFR0              0      0       0       1        0.0%
SFR0                 0      0       0       1        0.0%
BITCOMMON            E      0       0       2        0.0%
BITSFR1              0      0       0       2        0.0%
SFR1                 0      0       0       2        0.0%
COMMON               E      3       4       3       28.6%
BITSFR2              0      0       0       3        0.0%
SFR2                 0      0       0       3        0.0%
BITSFR3              0      0       0       4        0.0%
SFR3                 0      0       0       4        0.0%
STACK                0      0       0       4        0.0%
BANK0               50     18      1C       5       35.0%
BITSFR4              0      0       0       5        0.0%
SFR4                 0      0       0       5        0.0%
BITBANK0            50      0       0       6        0.0%
BITSFR5              0      0       0       6        0.0%
SFR5                 0      0       0       6        0.0%
BITBANK1            50      0       0       7        0.0%
BITSFR6              0      0       0       7        0.0%
SFR6                 0      0       0       7        0.0%
BANK1               50      0       0       8        0.0%
BITSFR7              0      0       0       8        0.0%
SFR7                 0      0       0       8        0.0%
BITBANK2            50      0       0       9        0.0%
BITSFR8              0      0       0       9        0.0%
SFR8                 0      0       0       9        0.0%
BANK2               50      0       0      10        0.0%
BITSFR9              0      0       0      10        0.0%
SFR9                 0      0       0      10        0.0%
BITBANK3            50      0       0      11        0.0%
BITSFR10             0      0       0      11        0.0%
SFR10                0      0       0      11        0.0%
BANK3               50      0       0      12        0.0%
BITSFR11             0      0       0      12        0.0%
SFR11                0      0       0      12        0.0%
BITSFR12             0      0       0      13        0.0%
SFR12                0      0       0      13        0.0%
ABS                  0      0      20      13        0.0%
BITBANK4            50      0       0      14        0.0%
BITSFR13             0      0       0      14        0.0%
SFR13                0      0       0      14        0.0%
BANK4               50      0       0      15        0.0%
BITSFR14             0      0       0      15        0.0%
SFR14                0      0       0      15        0.0%
BITBANK5            50      0       0      16        0.0%
BITSFR15             0      0       0      16        0.0%
SFR15                0      0       0      16        0.0%
BANK5               50      0       0      17        0.0%
BITSFR16             0      0       0      17        0.0%
SFR16                0      0       0      17        0.0%
BITBANK6            50      0       0      18        0.0%
BITSFR17             0      0       0      18        0.0%
SFR17                0      0       0      18        0.0%
BANK6               50      0       0      19        0.0%
BITSFR18             0      0       0      19        0.0%
SFR18                0      0       0      19        0.0%
BITBANK7            50      0       0      20        0.0%
BITSFR19             0      0       0      20        0.0%
SFR19                0      0       0      20        0.0%
BANK7               50      0       0      21        0.0%
BITSFR20             0      0       0      21        0.0%
SFR20                0      0       0      21        0.0%
BITBANK8            50      0       0      22        0.0%
BITSFR21             0      0       0      22        0.0%
SFR21                0      0       0      22        0.0%
BANK8               50      0       0      23        0.0%
BITSFR22             0      0       0      23        0.0%
SFR22                0      0       0      23        0.0%
BITBANK9            50      0       0      24        0.0%
BITSFR23             0      0       0      24        0.0%
SFR23                0      0       0      24        0.0%
BANK9               50      0       0      25        0.0%
BITSFR24             0      0       0      25        0.0%
SFR24                0      0       0      25        0.0%
BITBANK10           50      0       0      26        0.0%
BITSFR25             0      0       0      26        0.0%
SFR25                0      0       0      26        0.0%
BANK10              50      0       0      27        0.0%
BITSFR26             0      0       0      27        0.0%
SFR26                0      0       0      27        0.0%
BITBANK11           50      0       0      28        0.0%
BITSFR27             0      0       0      28        0.0%
SFR27                0      0       0      28        0.0%
BANK11              50      0       0      29        0.0%
BITSFR28             0      0       0      29        0.0%
SFR28                0      0       0      29        0.0%
BITSFR29             0      0       0      30        0.0%
SFR29                0      0       0      30        0.0%
DATA                 0      0      20      30        0.0%
BITBANK12           30      0       0      31        0.0%
BITSFR30             0      0       0      31        0.0%
SFR30                0      0       0      31        0.0%
BANK12              30      0       0      32        0.0%
BITSFR31             0      0       0      32        0.0%
SFR31                0      0       0      32        0.0%
BITBANK13           50      0       0      33        0.0%
BANK13              50      0       0      34        0.0%
BITBANK14           50      0       0      35        0.0%
BANK14              50      0       0      36        0.0%
BITBANK15           50      0       0      37        0.0%
BANK15              50      0       0      38        0.0%
BITBANK16           50      0       0      39        0.0%
BANK16              50      0       0      40        0.0%
BITBANK17           50      0       0      41        0.0%
BANK17              50      0       0      42        0.0%
BITBANK18           50      0       0      43        0.0%
BANK18              50      0       0      44        0.0%
BITBANK19           50      0       0      45        0.0%
BANK19              50      0       0      46        0.0%
BITBANK20           50      0       0      47        0.0%
BANK20              50      0       0      48        0.0%
BITBANK21           50      0       0      49        0.0%
BANK21              50      0       0      50        0.0%
BITBANK22           50      0       0      51        0.0%
BANK22              50      0       0      52        0.0%
BITBANK23           50      0       0      53        0.0%
BANK23              50      0       0      54        0.0%
BITBANK24           50      0       0      55        0.0%
BANK24              50      0       0      56        0.0%
BITBANK25           20      0       0      57        0.0%
BANK25              20      0       0      58        0.0%


Microchip Technology PIC Macro Assembler V2.05 build -831301201 
Symbol Table                                                                                   Sat Apr 13 14:32:13 2019

                      l91 006C                        l94 008B                        l86 003B  
                      l97 008F                        l98 0098                       l101 00B7  
                     l111 00E1                       l112 0105                       l104 00BB  
                     l121 0199                       l105 00BE                       l131 02FE  
                     l123 019C                       l115 0102                       l132 01D0  
                     l108 00DD                       l142 021B                       l126 01BA  
                     l135 01EF                       l160 02D7                       l153 022E  
                     l145 021F                       l146 0222                       l138 01F3  
                     l163 02F5                       l139 01FC                       l156 02C0  
                     l173 0313                       l149 022C                       l158 02C7  
                     l169 030C                       wreg 0009                      l1230 00E6  
                    l1304 022A                      l1240 0109                      l1340 02F9  
                    l1326 02C3                      l1352 0311                      l1178 01BE  
                    l1188 0064                      u1165 0124                      u1175 0143  
                    u1185 0152                      u1435 02D0                      u1355 024B  
                    u1195 0171                      u1365 026A                      u1375 0279  
                    u1385 0298                      _T2PR 0494                      _T4PR 0414  
                    _main 0038                      fsr0h 0005                      indf0 0000  
                    fsr0l 0004               main@timer2p 002A                      btemp 007E  
                    start 0028             __CFG_PLLEN$ON 0000                     ?_main 0070  
           __CFG_WDTE$OFF 0000                     _T1CON 001A                     _T2CON 0495  
                   _T4CON 0415                     _T4HLT 0416                     i1l183 0023  
                   i1l186 0026                     _TMR1H 0019                     _TMR1L 0018  
                   _TRISA 008C              main@duration 0032                _ArrayIndex 0073  
      main@button_counter 0036                     status 0003                     wtemp0 007E  
         _ConfigureTimer1 03EC           _ConfigureTimer2 03DB           _ConfigureTimer4 03E4  
         __initialization 002A              __end_of_main 0317                    ??_main 0020  
                  _T1GCON 001B                    _OSCCON 009B   __end_of_ConfigureTimer1 03F2  
 __end_of_ConfigureTimer2 03E4   __end_of_ConfigureTimer4 03EC   __end_of__initialization 0034  
          __pcstackCOMMON 0070       __end_of_Sine_Sample 03DB              __pidataBANK0 03F2  
              __pbssBANK0 0038             ?_playSineWave 0070                __pmaintext 0038  
              __pintentry 0004            ??_playSineWave 0070          ?_ConfigureTimer1 0070  
        ?_ConfigureTimer2 0070          ?_ConfigureTimer4 0070                 _DACLDbits 058D  
             _Sine_Sample 0317            main@play_count 0028                   __ptext1 03E4  
                 __ptext2 03DB                   __ptext3 03EC                 _T1CONbits 001A  
               _T2CONbits 0495                   _current 003A                 _T4CONbits 0415  
            _audio_output 0038      end_of_initialization 0034                 _PORTBbits 000D  
        __CFG_FOSC$INTOSC 0000                 _TRISBbits 008D      __end_of_playSineWave 0028  
     start_initialization 002A               __pdataBANK0 003A               __pbssCOMMON 0073  
               ___latbits 0003             __pcstackBANK0 0020                  _DAC1CON0 058E  
                _DAC1REFH 0590                  _DAC1REFL 058F                  _T2CLKCON 0497  
                _T4CLKCON 0417                  _PIR1bits 0011     __size_of_playSineWave 0024  
                _PIR4bits 0014  __size_of_ConfigureTimer1 0006  __size_of_ConfigureTimer2 0009  
__size_of_ConfigureTimer4 0008              _playSineWave 0004                _ANSELBbits 018D  
           __size_of_main 02DF           main@timer2p_469 002E                  int$flags 007E  
                main@hold 0037         ??_ConfigureTimer1 0073         ??_ConfigureTimer2 0073  
       ??_ConfigureTimer4 0073               _OSCSTATbits 009C                  intlevel1 0000  
           __pstringtext1 0317  
